((dp0
S'arm_dbg_args'
p1
S'-via:"c:\\Users\\Pietro\\Documents\\GitHub\\Patriot-Missile-Defense\\build_app_vc10x\\app_vc10x_arm_debug.via" -qemu'
p2
sS'game-icf'
p3
S''
p4
sS'dist'
p5
NsS'module_path_append'
p6
NsS'global_path'
p7
S'c:\\users\\pietro\\documents\\github'
p8
sS'system_path'
p9
S'c:\\marmalade\\6.3\\s3e\\makefile_builder'
p10
sS'android_x86_dbg_args'
p11
S'../../tools/DeployTool/DeployTool.exe --dir "c:\\Users\\Pietro\\Documents\\GitHub\\Patriot-Missile-Defense\\build_app_vc10x"'
p12
sS'use_prebuilt'
p13
NsS'arm_rel_rtsm_args'
p14
S'-via:"c:\\Users\\Pietro\\Documents\\GitHub\\Patriot-Missile-Defense\\build_app_vc10x\\app_vc10x_arm_release.via" -qemu'
p15
sS'amd64'
p16
NsS'line-width'
p17
I80
sS'gcc_dbg_args'
p18
S'-via:"c:\\Users\\Pietro\\Documents\\GitHub\\Patriot-Missile-Defense\\build_app_vc10x\\app_vc10x_gcc_debug.via" -qemu'
p19
sS'android-x86'
p20
NsS'x86_dbg_exe'
p21
S'c:/marmalade/6.3/s3e\\win32\\s3e_simulator_debug.exe'
p22
sS'disable-runtime-checks'
p23
NsS'release'
p24
NsS'no-make'
p25
NsS'optimise-size'
p26
NsS'output-name-debug'
p27
g4
sS'arm-fpu'
p28
S'vfp'
p29
sS'psp'
p30
NsS'proj_name'
p31
S'app_vc10x'
p32
sS'rvct-version'
p33
S'none'
p34
sS'compiler'
p35
g4
sS'execute'
p36
NsS'compile-static'
p37
NsS'msvc-project'
p38
NsS'buildenv'
p39
S'VC10X'
p40
sS'debug'
p41
NsS'module_path'
p42
NsS'use-release-std-libs'
p43
NsS'using_perforce'
p44
I00
sS'mips-s3e'
p45
NsS'shared-arm-lib'
p46
NsS'arm-cpu'
p47
g4
sS'compile-thumb'
p48
NsS'no-ide'
p49
NsS'msvc-version'
p50
S'6.0'
p51
sS'arm'
p52
NsS'builddir'
p53
g4
sS'compile-debug-as-release'
p54
I0
sS'brief'
p55
NsS'dll'
p56
NsS'buildenv-toolset'
p57
g4
sS'version'
p58
NsS'ccache'
p59
I0
sS'offline'
p60
NsS'ios-version'
p61
g4
sS'jobs'
p62
I0
sS'linkflags'
p63
NsS'quick'
p64
NsS'gcc_rel_rtsm_args'
p65
S'-via:"c:\\Users\\Pietro\\Documents\\GitHub\\Patriot-Missile-Defense\\build_app_vc10x\\app_vc10x_gcc_release.via" -qemu'
p66
sS'done_defaults'
p67
I1
sS'path'
p68
NsS's3e-data-dir'
p69
S'c:/Users/Pietro/Documents/GitHub/Patriot-Missile-Defense\\data'
p70
sS'enable-exceptions'
p71
NsS'osx-dll'
p72
NsS'extension'
p73
g4
sS'no-vc6'
p74
NsS'non-interactive'
p75
NsS'win32-console'
p76
NsS'nds'
p77
NsS'dist-format'
p78
g4
sS's3e-force-arch'
p79
NsS'dump_defines'
p80
NsS'verbose'
p81
I0
sS'psp-minis'
p82
NsS'gcc-version'
p83
g4
sS'x86_dbg_args'
p84
S'-via:"c:\\Users\\Pietro\\Documents\\GitHub\\Patriot-Missile-Defense\\build_app_vc10x\\app_vc10x_debug.via"'
p85
sS'arm-debugger'
p86
g4
sS'use_temp_extension'
p87
NsS'log'
p88
NsS'no-strip'
p89
NsS'rebuild'
p90
NsS'win32-simulator-dll'
p91
NsS'strict'
p92
NsS'mips_dbg_args'
p93
g12
sS'enable-global-path'
p94
NsS'iphone'
p95
NsS'cflags'
p96
NsS'dist-dir'
p97
g4
sS'jflags'
p98
NsS'distcc'
p99
NsS'external-compiler'
p100
NsS'no-distcc'
p101
NsS'preinclude'
p102
NsS'using_sdk'
p103
I01
sS'nologo'
p104
NsS'warn-level'
p105
I2
sS'mips_dbg_exe'
p106
S'c:\\marmalade\\6.3\\s3e\\makefile_builder\\tool_launcher.exe'
p107
sS'mkb_in'
p108
S'c:/Users/Pietro/Documents/GitHub/Patriot-Missile-Defense/app.mkb'
p109
sS'arm_dbg_exe'
p110
S'c:/marmalade/6.3/s3e\\bin\\armdebug.exe'
p111
sS'android_x86_dbg_exe'
p112
g107
sS'test-config'
p113
g4
sS'list-targets'
p114
NsS'arm_rel_exe'
p115
g107
sS'arm_rel_args'
p116
g12
sS'makedeps'
p117
NsS'android_x86_rel_exe'
p118
g107
sS'default-buildenv'
p119
S'VC11XWP'
p120
sS'x86_rel_exe'
p121
g22
sS'preprocess-java'
p122
NsS'mips_rel_args'
p123
g12
sS'defines'
p124
NsS'lib'
p125
NsS'global_argv'
p126
(lp127
S'C:\\Marmalade\\6.3\\s3e\\makefile_builder\\mkb.py'
p128
aS'--buildenv=VC10X'
p129
aS'C:\\Users\\Pietro\\Documents\\GitHub\\Patriot-Missile-Defense\\app.mkb'
p130
asS'make'
p131
NsS'optimise-speed'
p132
NsS'internal'
p133
NsS'enable-stdinc'
p134
NsS'deploy-only'
p135
NsS'x86'
p136
NsS'deploy'
p137
g4
sS'x86_run_exe'
p138
S'c:/marmalade/6.3/s3e\\win32\\s3e_console.exe'
p139
sS'x86_rel_args'
p140
S'-via:"c:\\Users\\Pietro\\Documents\\GitHub\\Patriot-Missile-Defense\\build_app_vc10x\\app_vc10x_release.via"'
p141
sS'gcc_rel_args'
p142
g12
sS'mips'
p143
NsS'incredibuild'
p144
NsS'strict-compile'
p145
NsS'use-auto-subdirs'
p146
NsS'mips_rel_exe'
p147
g107
sS'android_x86_rel_args'
p148
g12
sS'app-icf'
p149
g4
sS'deployargs'
p150
NsS'mkf_in'
p151
(lp152
S'c:\\marmalade\\6.3\\modules\\iw2d\\iw2d.mkf'
p153
aS'c:\\marmalade\\6.3\\modules\\iwgx\\iwgx.mkf'
p154
aS'c:\\marmalade\\6.3\\modules\\iwgeom\\iwgeom.mkf'
p155
aS'c:\\marmalade\\6.3\\modules\\iwutil\\iwutil.mkf'
p156
aS'c:\\marmalade\\6.3\\modules\\third_party\\libjpeg\\libjpeg.mkf'
p157
aS'c:\\marmalade\\6.3\\modules\\third_party\\libpng\\libpng.mkf'
p158
aS'c:\\marmalade\\6.3\\modules\\third_party\\zlib\\zlib.mkf'
p159
aS'c:\\marmalade\\6.3\\modules\\iwresmanager\\iwresmanager.mkf'
p160
aS'c:\\marmalade\\6.3\\modules\\iwgl\\iwgl.mkf'
p161
aS'c:\\marmalade\\6.3\\modules\\iwgxfont\\iwgxfont.mkf'
p162
aS'c:\\marmalade\\6.3\\modules\\third_party\\tiniconv\\tiniconv.mkf'
p163
aS'c:\\users\\pietro\\documents\\github\\patriot-missile-defense\\app.mkf'
p164
asS'strict-mkb'
p165
NsS'executeargs'
p166
NsS'clean'
p167
NsS'no-asm'
p168
NsS'output-name'
p169
g4
sS'no-modules'
p170
NsS'find_define'
p171
g4
s(dp172
S'c:\\marmalade\\6.3\\s3e\\makefile_builder\\templates\\vc7_suo.pyc'
p173
F1374868032.0
sS'c:\\marmalade\\6.3\\s3e\\makefile_builder\\templates\\win32_sln.pyc'
p174
F1374868032.0
sS'c:\\marmalade\\6.3\\s3e\\makefile_builder\\plugins\\s3e_xcode.pyc'
p175
F1382884931.6718085
sS'c:\\marmalade\\6.3\\s3e\\makefile_builder\\docs\\options.txt'
p176
F1374867152.0
sS'c:\\marmalade\\6.3\\s3e\\makefile_builder\\templates\\qmake.py'
p177
F1374867152.0
sS'c:\\marmalade\\6.3\\s3e\\makefile_builder\\plugins\\s3e_wp8.pyc'
p178
F1374868032.0
sS'c:\\marmalade\\6.3\\s3e\\makefile_builder\\templates\\xcode_pbxuser.py'
p179
F1374867152.0
sS'c:\\marmalade\\6.3\\s3e\\makefile_builder\\plugins\\VisualStudioEmitter.pyc'
p180
F1374868032.0
sS'c:\\marmalade\\6.3\\s3e\\makefile_builder\\deployment.pyc'
p181
F1374868030.0
sS'c:\\marmalade\\6.3\\s3e\\makefile_builder\\templates\\scons.pyc'
p182
F1374868032.0
sS'c:\\marmalade\\6.3\\s3e\\makefile_builder\\plugins\\xcode4_schememanagement.pyc'
p183
F1382884930.9000988
sS'c:\\marmalade\\6.3\\s3e\\makefile_builder\\templates\\win32_vcproj.pyc'
p184
F1374868032.0
sS'c:\\marmalade\\6.3\\s3e\\makefile_builder\\plugins\\deploy.pyc'
p185
F1374868030.0
sS'c:\\marmalade\\6.3\\s3e\\makefile_builder\\plugins\\s3e_qmake.py'
p186
F1374867152.0
sS'c:\\marmalade\\6.3\\s3e\\makefile_builder\\templates'
p187
F1381694861.6650052
sS'c:\\marmalade\\6.3\\s3e\\makefile_builder\\templates\\vc6_opt.pyc'
p188
F1374868032.0
sS'c:\\marmalade\\6.3\\s3e\\makefile_builder\\extensions\\make_dist.py'
p189
F1374867152.0
sS'c:\\marmalade\\6.3\\s3e\\makefile_builder\\templates\\Info.plist'
p190
F1374867152.0
sS'c:\\marmalade\\6.3\\s3e\\makefile_builder\\extensions'
p191
F1381694861.6670065
sS'c:\\marmalade\\6.3\\s3e\\makefile_builder\\mkb_launcher.exe'
p192
F1374867478.0
sS'c:\\marmalade\\6.3\\s3e\\makefile_builder\\templates\\template.suo'
p193
F1374867152.0
sS'c:\\marmalade\\6.3\\s3e\\makefile_builder\\mkb_globals.pyc'
p194
F1374868030.0
sS'c:\\marmalade\\6.3\\s3e\\makefile_builder\\plugins\\XcodeEmitter.py'
p195
F1374867152.0
sS'c:\\marmalade\\6.3\\s3e\\makefile_builder\\templates\\gdb_start.txt'
p196
F1374867152.0
sS'c:\\marmalade\\6.3\\s3e\\makefile_builder\\docs\\deprecated.options.txt'
p197
F1374867152.0
sS'c:\\marmalade\\6.3\\s3e\\makefile_builder\\plugins\\wp8_wp8.pyc'
p198
F1374868032.0
sS'c:\\marmalade\\6.3\\s3e\\makefile_builder\\templates\\mips_linker_script'
p199
F1374867152.0
sS'c:\\marmalade\\6.3\\s3e\\makefile_builder\\templates\\wp8_csproj_user.pyc'
p200
F1374868032.0
sS'c:\\marmalade\\6.3\\s3e\\makefile_builder\\plugins\\vc6_utils.pyc'
p201
F1374868032.0
sS'c:\\marmalade\\6.3\\s3e\\makefile_builder\\templates\\win32_vcxproj.pyc'
p202
F1374868032.0
sS'c:\\marmalade\\6.3\\s3e\\makefile_builder\\mkb_main.pyc'
p203
F1374868030.0
sS'c:\\marmalade\\6.3\\s3e\\makefile_builder\\plugins\\java.pyc'
p204
F1374868032.0
sS'c:\\marmalade\\6.3\\s3e\\makefile_builder\\templates\\xcode4.xcscheme'
p205
F1374867152.0
sS'c:\\marmalade\\6.3\\s3e\\makefile_builder\\plugins\\S3EEmitter.pyc'
p206
F1374868032.0
sS'c:\\marmalade\\6.3\\s3e\\makefile_builder\\mkb.py'
p207
F1374867152.0
sS'c:\\marmalade\\6.3\\s3e\\makefile_builder\\templates\\MainWindow.xib'
p208
F1374867152.0
sS'c:\\marmalade\\6.3\\s3e\\makefile_builder\\mkb_parser.pyc'
p209
F1374868030.0
sS'c:\\marmalade\\6.3\\s3e\\makefile_builder\\templates\\xcode4_DeployTool.xcscheme'
p210
F1374867152.0
sS'c:\\marmalade\\6.3\\s3e\\makefile_builder\\tool_launcher.exe'
p211
F1374867478.0
sS'c:\\marmalade\\6.3\\s3e\\makefile_builder\\mkb_util.pyc'
p212
F1374868030.0
sS'c:\\marmalade\\6.3\\s3e\\makefile_builder\\templates\\linker_script'
p213
F1374867152.0
sS'c:\\marmalade\\6.3\\s3e\\makefile_builder\\templates\\win32_vcxproj_filters.pyc'
p214
F1374868032.0
sS'c:\\marmalade\\6.3\\s3e\\makefile_builder\\mkb_option.pyc'
p215
F1374868030.0
sS'c:\\marmalade\\6.3\\s3e\\makefile_builder\\plugins\\vc7_utils.pyc'
p216
F1374868032.0
sS'c:\\marmalade\\6.3\\s3e\\makefile_builder\\templates\\wp8_sln.pyc'
p217
F1374868032.0
sS'c:\\marmalade\\6.3\\s3e\\makefile_builder\\plugins\\s3e_make.pyc'
p218
F1374868030.0
sS'c:\\marmalade\\6.3\\s3e\\makefile_builder\\plugins\\XcodeEmitter.pyc'
p219
F1382884930.8472919
sS'c:\\marmalade\\6.3\\s3e\\makefile_builder\\docs\\deprecated.defines.txt'
p220
F1374867152.0
sS'c:\\marmalade\\6.3\\s3e\\makefile_builder\\docs'
p221
F1381694862.1687815
sS'c:\\marmalade\\6.3\\s3e\\makefile_builder\\templates\\win32_dsw.pyc'
p222
F1374868032.0
sS'c:\\marmalade\\6.3\\s3e\\makefile_builder\\templates\\template.opt'
p223
F1374867152.0
sS'c:\\marmalade\\6.3\\s3e\\makefile_builder\\docs\\deployment_options.txt'
p224
F1374867152.0
sS'c:\\marmalade\\6.3\\s3e\\makefile_builder\\plugins\\Emitter.pyc'
p225
F1374868032.0
sS'c:\\marmalade\\6.3\\s3e\\makefile_builder\\templates\\wp8_vcxproj.pyc'
p226
F1374868032.0
sS'c:\\marmalade\\6.3\\s3e\\makefile_builder\\docs\\mkb.defines.txt'
p227
F1374867152.0
sS'c:\\marmalade\\6.3\\s3e\\makefile_builder\\templates\\xcode.py'
p228
F1374867152.0
sS'c:\\marmalade\\6.3\\s3e\\makefile_builder\\plugins\\s3e_xcode.py'
p229
F1374867152.0
sS'c:\\marmalade\\6.3\\s3e\\makefile_builder\\templates\\win32_dsp.pyc'
p230
F1374868032.0
sS'c:\\marmalade\\6.3\\s3e\\makefile_builder\\plugins\\osx_scons.pyc'
p231
F1374868032.0
sS'c:\\marmalade\\6.3\\s3e\\makefile_builder\\plugins\\SConsEmitter.pyc'
p232
F1374868032.0
sS'c:\\marmalade\\6.3\\s3e\\makefile_builder\\plugins\\s3e_web.pyc'
p233
F1374868030.0
sS'c:\\marmalade\\6.3\\s3e\\makefile_builder\\templates\\make.py'
p234
F1374867152.0
sS'c:\\marmalade\\6.3\\s3e\\makefile_builder\\templates\\wp8_csproj.pyc'
p235
F1374868032.0
sS'c:\\marmalade\\6.3\\s3e\\makefile_builder\\templates\\vc8_user.pyc'
p236
F1374868032.0
sS'c:\\marmalade\\6.3\\s3e\\makefile_builder\\plugins\\osx_xcode.pyc'
p237
F1374868032.0
sS'c:\\marmalade\\6.3\\s3e\\makefile_builder\\plugins'
p238
F1382884931.6708014
sS'c:\\marmalade\\6.3\\s3e\\makefile_builder\\plugins\\s3e_vc6.pyc'
p239
F1374868030.0
sS'c:\\marmalade\\6.3\\s3e\\makefile_builder\\plugins\\MakeEmitter.pyc'
p240
F1374868032.0
sS'c:\\marmalade\\6.3\\s3e\\makefile_builder\\templates\\vc10_user.pyc'
p241
F1374868032.0
sS'c:\\marmalade\\6.3\\s3e\\makefile_builder\\plugins\\s3e_qmake.pyc'
p242
F1382884931.1602416
sS'c:\\marmalade\\6.3\\s3e\\makefile_builder\\plugins\\iphone.pyc'
p243
F1374868032.0
sS'c:\\marmalade\\6.3\\s3e\\makefile_builder\\plugins\\xcode4_schememanagement.py'
p244
F1374867152.0
sS'c:\\marmalade\\6.3\\s3e\\makefile_builder\\templates\\rvct_linker_script'
p245
F1374867152.0
sS'c:\\marmalade\\6.3\\s3e\\makefile_builder\\plugins\\s3e_scons.pyc'
p246
F1374868030.0
sS'c:\\marmalade\\6.3\\s3e\\makefile_builder\\plugins\\null.pyc'
p247
F1374868032.0
sS'c:\\marmalade\\6.3\\s3e\\makefile_builder\\plugins\\win32_vc6.pyc'
p248
F1374868032.0
sS'c:\\marmalade\\6.3\\s3e\\makefile_builder\\docs\\parse_options.pyc'
p249
F1374868032.0
sS'c:\\marmalade\\6.3\\s3e\\makefile_builder\\templates\\qmake_user.py'
p250
F1374867152.0
sS'c:\\marmalade\\6.3\\s3e\\makefile_builder\\plugins\\linux_scons.pyc'
p251
F1374868032.0
sccopy_reg
_reconstructor
p252
(cmkb_main
MkbFile
p253
c__builtin__
object
p254
Ntp255
Rp256
(dp257
g5
(lp258
sS'target_name'
p259
S'app'
p260
sS'current_file'
p261
g109
sS'package_path'
p262
(lp263
sS'post_build'
p264
(lp265
(lp266
S'c:/marmalade/6.3/s3e/tools'
p267
aS'C:\\Marmalade\\6.3\\s3e\\python\\python.exe .\\process_map.py "$(TargetPath)"'
p268
aa(S'c:\\marmalade\\6.3\\s3e'
p269
S'"c:\\marmalade\\6.3\\s3e\\bin\\s3e_plink" -l "$(TargetPath)" '
p270
g136
tp271
asS'librarys'
p272
(lp273
g252
(cmkb_main
Library
p274
g254
Ntp275
Rp276
(dp277
S'name'
p278
S'vc6_compat.lib'
p279
sS'expand_name'
p280
I00
sS'include_spec_rvct_objs'
p281
(lp282
sS'include_all_objs'
p283
I00
sS'share_arm'
p284
I00
sS'arch'
p285
S'x86'
p286
sS'nodebug'
p287
I00
sg35
Nsbag252
(g274
g254
Ntp288
Rp289
(dp290
g278
S'jpeg'
p291
sg280
I01
sg281
(lp292
sg283
Nsg284
Nsg285
Nsg287
I00
sg35
Nsbag252
(g274
g254
Ntp293
Rp294
(dp295
g278
S'z'
p296
sg280
I01
sg281
g292
sg283
Nsg284
Nsg285
Nsg287
I00
sg35
Nsbag252
(g274
g254
Ntp297
Rp298
(dp299
g278
S'png'
p300
sg280
I01
sg281
g292
sg283
Nsg284
Nsg285
Nsg287
I00
sg35
Nsbag252
(g274
g254
Ntp301
Rp302
(dp303
g278
S'iwutil'
p304
sg280
I01
sg281
g292
sg283
Nsg284
I01
sg285
Nsg287
I00
sg35
Nsbag252
(g274
g254
Ntp305
Rp306
(dp307
g278
S'iwgeom'
p308
sg280
I01
sg281
g292
sg283
Nsg284
I01
sg285
Nsg287
I00
sg35
Nsbag252
(g274
g254
Ntp309
Rp310
(dp311
g278
S'iwresmanager'
p312
sg280
I01
sg281
g292
sg283
Nsg284
I01
sg285
Nsg287
I00
sg35
Nsbag252
(g274
g254
Ntp313
Rp314
(dp315
g278
S'ATI_Compress_MT_VC7.lib'
p316
sg280
I00
sg281
g292
sg283
Nsg284
Nsg285
S'x86'
p317
sg287
I00
sg35
Nsbag252
(g274
g254
Ntp318
Rp319
(dp320
g278
S'iwgx'
p321
sg280
I01
sg281
g292
sg283
Nsg284
I01
sg285
Nsg287
I00
sg35
Nsbag252
(g274
g254
Ntp322
Rp323
(dp324
g278
S'iwgl'
p325
sg280
I01
sg281
g292
sg283
Nsg284
Nsg285
Nsg287
I00
sg35
Nsbag252
(g274
g254
Ntp326
Rp327
(dp328
g278
S'iwgxfont'
p329
sg280
I01
sg281
g292
sg283
Nsg284
I01
sg285
Nsg287
I00
sg35
Nsbag252
(g274
g254
Ntp330
Rp331
(dp332
g278
S'tiniconv'
p333
sg280
I01
sg281
g292
sg283
Nsg284
Nsg285
Nsg287
I00
sg35
Nsbag252
(g274
g254
Ntp334
Rp335
(dp336
g278
S'iw2d'
p337
sg280
I01
sg281
g292
sg283
Nsg284
I01
sg285
Nsg287
I00
sg35
Nsbag252
(g274
g254
Ntp338
Rp339
(dp340
g278
S's3e_cpp'
p341
sg280
I01
sg281
g282
sg283
I00
sg284
I00
sg285
Nsg287
I00
sg35
Nsbag252
(g274
g254
Ntp342
Rp343
(dp344
g278
S's3e'
p345
sg280
I01
sg281
(lp346
S'iwcrt.o'
p347
asg283
I00
sg284
I00
sg285
Nsg287
I00
sg35
Nsbag252
(g274
g254
Ntp348
Rp349
(dp350
g278
S's3e_api'
p351
sg280
I01
sg281
g282
sg283
I00
sg284
I00
sg285
S'x86'
p352
sg287
I00
sg35
Nsbag252
(g274
g254
Ntp353
Rp354
(dp355
g278
S's3e_api'
p356
sg280
I01
sg281
g282
sg283
I00
sg284
I00
sg285
S'!x86'
p357
sg287
I1
sg35
Nsbag252
(g274
g254
Ntp358
Rp359
(dp360
g278
S'stdc++'
p361
sg280
I00
sg281
g282
sg283
I00
sg284
I00
sg285
S'mips'
p362
sg287
I00
sg35
Nsbag252
(g274
g254
Ntp363
Rp364
(dp365
g278
S'c'
p366
sg280
I00
sg281
g282
sg283
I00
sg284
I00
sg285
S'mips'
p367
sg287
I00
sg35
Nsbag252
(g274
g254
Ntp368
Rp369
(dp370
g278
S'm'
p371
sg280
I00
sg281
g282
sg283
I00
sg284
I00
sg285
S'mips'
p372
sg287
I00
sg35
Nsbag252
(g274
g254
Ntp373
Rp374
(dp375
g278
S'gcc'
p376
sg280
I00
sg281
g282
sg283
I00
sg284
I00
sg285
S'mips'
p377
sg287
I00
sg35
Nsbag252
(g274
g254
Ntp378
Rp379
(dp380
g278
S'stdc++'
p381
sg280
I00
sg281
g282
sg283
I00
sg284
I00
sg285
S'gcc_x86_android'
p382
sg287
I00
sg35
Nsbag252
(g274
g254
Ntp383
Rp384
(dp385
g278
g366
sg280
I00
sg281
g282
sg283
I00
sg284
I00
sg285
S'gcc_x86_android'
p386
sg287
I00
sg35
Nsbag252
(g274
g254
Ntp387
Rp388
(dp389
g278
g371
sg280
I00
sg281
g282
sg283
I00
sg284
I00
sg285
S'gcc_x86_android'
p390
sg287
I00
sg35
Nsbag252
(g274
g254
Ntp391
Rp392
(dp393
g278
S'gcc'
p394
sg280
I00
sg281
g282
sg283
I00
sg284
I00
sg285
S'gcc_x86_android'
p395
sg287
I00
sg35
NsbasS'library_paths'
p396
(lp397
g252
(cmkb_main
LibraryPath
p398
g254
Ntp399
Rp400
(dp401
S'expand_path'
p402
I01
sS'add_cpu_variant'
p403
I00
sg278
S'c:/marmalade/6.3/modules/third_party/libjpeg'
p404
sbag252
(g398
g254
Ntp405
Rp406
(dp407
g402
I01
sg403
I00
sg278
S'c:/marmalade/6.3/modules/third_party/zlib'
p408
sbag252
(g398
g254
Ntp409
Rp410
(dp411
g402
I01
sg403
I00
sg278
S'c:/marmalade/6.3/modules/third_party/libpng'
p412
sbag252
(g398
g254
Ntp413
Rp414
(dp415
g402
I01
sg403
I00
sg278
S'c:/marmalade/6.3/modules/iwutil'
p416
sbag252
(g398
g254
Ntp417
Rp418
(dp419
g402
I01
sg403
I00
sg278
S'c:/marmalade/6.3/modules/iwgeom'
p420
sbag252
(g398
g254
Ntp421
Rp422
(dp423
g402
I01
sg403
I00
sg278
S'c:/marmalade/6.3/modules/iwresmanager'
p424
sbag252
(g398
g254
Ntp425
Rp426
(dp427
g402
I00
sg403
I00
sg278
S'c:/marmalade/6.3/modules/iwgx/atitools'
p428
sbag252
(g398
g254
Ntp429
Rp430
(dp431
g402
I01
sg403
I00
sg278
S'c:/marmalade/6.3/modules/iwgx'
p432
sbag252
(g398
g254
Ntp433
Rp434
(dp435
g402
I01
sg403
I00
sg278
S'c:/marmalade/6.3/modules/iwgl'
p436
sbag252
(g398
g254
Ntp437
Rp438
(dp439
g402
I01
sg403
I00
sg278
S'c:/marmalade/6.3/modules/iwgxfont'
p440
sbag252
(g398
g254
Ntp441
Rp442
(dp443
g402
I01
sg403
I00
sg278
S'c:/marmalade/6.3/modules/third_party/tiniconv'
p444
sbag252
(g398
g254
Ntp445
Rp446
(dp447
g402
I01
sg403
I00
sg278
S'c:/marmalade/6.3/modules/iw2d'
p448
sbag252
(g398
g254
Ntp449
Rp450
(dp451
g402
I01
sg403
I00
sg278
S'c:/marmalade/6.3/s3e'
p452
sbasS'macros'
p453
(dp454
S'IW_USE_CALLSTACK'
p455
NsS'IW_SDK'
p456
NsS'I3D_PLATFORM_S3E'
p457
NsS'IW_MKF_APP'
p458
NsS'IW_MKF_LIBJPEG'
p459
NsS'I3D_OS_S3E'
p460
NsS'IW_MKF_TINICONV'
p461
NsS'IW_APP_VERSION'
p462
S'"1.0"'
p463
sS'IW_MKF_IWRESMANAGER'
p464
NsS'IW_MKF_IWUTIL'
p465
NsS'IW_MKF_IWGEOM'
p466
NsS'IW_ASSERTION_CHANNEL_2D'
p467
S'1'
p468
sS'IW_APP_NAME'
p469
S'"app"'
p470
sS'IW_MKF_IWGXFONT'
p471
NsS'IW_PLATFORM_S3E'
p472
NsS'IW_MKF_ZLIB'
p473
NsS'IW_MKF_IWGX'
p474
NsS'IW_USE_ASSERTIONS'
p475
NsS'_CRT_SECURE_NO_DEPRECATE'
p476
NsS'IW_MKF_IWGL'
p477
NsS'IW_MKF_LIBPNG'
p478
NsS'IW_DEBUG'
p479
NsS'IW_USE_TRACING'
p480
NsS'S3E_INCLUDE_LEGACY'
p481
NsS'__S3E__'
p482
NsS'IW_MKF_IW2D'
p483
NssS'done_warnings'
p484
(dp485
sS'subprojects'
p486
(dp487
g161
S'iwgl'
p488
sg162
S'iwgxfont'
p489
sg155
S'iwgeom'
p490
sg163
S'tiniconv'
p491
sg157
S'libjpeg'
p492
sg160
S'iwresmanager'
p493
sg158
S'libpng'
p494
sg156
S'iwutil'
p495
sg164
S'app'
p496
sg153
S'iw2d'
p497
sg154
S'iwgx'
p498
sg159
S'zlib'
p499
ssS'deployments'
p500
(dp501
S'Default'
p502
g252
(cdeployment
Deployment
p503
g254
Ntp504
Rp505
(dp506
S'got_version'
p507
I0
sS'assets'
p508
S'default'
p509
sS'mkb'
p510
g256
sS'target'
p511
Nsg285
(lp512
sS'options'
p513
(dp514
S'iphone-link-lib'
p515
(lp516
sS'game-icf'
p517
NsS'symbian-run-on-install'
p518
NsS'iphone-icon-high-res'
p519
NsS'win32-pref-windowposy'
p520
NsS'win32-pref-windowposx'
p521
NsS'bada-appsecret'
p522
NsS'roku-requires-audiometadata'
p523
NsS'playbook-author'
p524
NsS'winmobile-icon32'
p525
NsS'linux-ext-lib'
p526
(lp527
sS'target-folder'
p528
NsS'iphone-splashscreen-landscape'
p529
NsS'wp8-exclude-720p'
p530
NsS'psp-discversion'
p531
NsS'lgtv-use-drm'
p532
NsS'nds-bannertitle-sp'
p533
NsS'symbian-platsecflags'
p534
NsS'psp-producer'
p535
NsS'blackberry-playbook-icon'
p536
NsS'iphone-icon-ipad-search-high-res'
p537
NsS'iphone-provisioning-profile'
p538
NsS'copyright'
p539
NsS'android-extra-application-manifest'
p540
(lp541
sS'winmobile-png45'
p542
NsS'iphone-link-libdir'
p543
(lp544
sS'symbian-cert'
p545
NsS'nds-bannertitle-hn'
p546
NsS'brew-depends'
p547
NsS'wp8-author'
p548
NsS'winmobile-nouninstall'
p549
NsS'android-icon-hdpi'
p550
NsS'iphone-ipad-only'
p551
NsS'iphone-splash-full-orient'
p552
NsS'wp8-tile-fliptemplate-supports-large'
p553
NsS'iphone-bundle-url-name'
p554
NsS'iphone-show-status-bar'
p555
NsS'wp8-tile-fliptemplate-large-front-image'
p556
NsS'android-aliasname'
p557
NsS'iphone-splash-retina-generate'
p558
NsS'psp-dlgmanual'
p559
NsS'iphone-backgroundmode-audio'
p560
NsS'android-pkgname'
p561
NsS'webos-memory'
p562
NsS'brew-uid'
p563
NsS'android-keypass'
p564
NsS'symbian-locationsupport'
p565
NsS'wp8-tile-fliptemplate-large-back-content'
p566
NsS'iphone-signing-host'
p567
NsS'nds-bannertitle-jp'
p568
NsS'name'
p569
NsS'iphone-link-libdirs'
p570
(lp571
sS'osx-info-plist'
p572
NsS'symbian-icon1-format'
p573
NsS'uiq3-uid'
p574
NsS'psp-dlgcontentid'
p575
NsS'roku-splash-screen-sd'
p576
NsS'auto-derbh'
p577
NsS'bada-use-partner-privileges'
p578
NsS'nds-bannertitle-it'
p579
NsS'roku-icon-side-sd'
p580
NsS'blackberry-authorid'
p581
NsS'nds-publicsavedatasize'
p582
NsS'splashscreen'
p583
NsS'brew-mif'
p584
NsS'symbian-icon2-format'
p585
NsS'long-caption'
p586
NsS'iphone-icon-settings-high-res'
p587
NsS'uiq3-icon1-mask'
p588
NsS'iphone-development-cert'
p589
NsS'winmobile-icon16'
p590
NsS's3e-compression'
p591
NsS'wp8-description'
p592
NsS'iphone-link-opts'
p593
(lp594
sS'wp8-tile-fliptemplate-back-content'
p595
NsS'iphone-region'
p596
NsS'uiq3-icon3-mask'
p597
NsS'winmobile-start-menu-folder'
p598
NsS'roku-splash-min-time'
p599
NsS'brew-encoding'
p600
NsS'roku-requires-bluetooth'
p601
NsS'symbian-icon1'
p602
NsS'symbian-icon2'
p603
NsS'psp-parentallevel'
p604
NsS'wp8-tile-fliptemplate-medium-front-image'
p605
NsS'wp8-tile-fliptemplate-large-back-image'
p606
NsS'version'
p607
NsS'caption'
p608
NsS'bada-manifest'
p609
NsS'provider'
p610
NsS'iphone-prerendered-icon'
p611
NsS'iphone-appid'
p612
NsS'playbook-keystore'
p613
NsS'nds-initialcode'
p614
NsS'priv-sign-key'
p615
NsS'android-external-jars'
p616
(lp617
sS'blackberry-cskpass'
p618
NsS'iphone-persistent-wifi'
p619
NsS'symbian7-uid'
p620
NsS'winmobile-setup-dll'
p621
NsS'wp8-exclude-wvga'
p622
NsS'symbian-osexecsupport'
p623
NsS'android-install-location'
p624
NsS'olddeploytoolstyle'
p625
NsS'nds-privatesavedatasize'
p626
NsS'symbian9-uid'
p627
NsS'nds-bannertitle-cn'
p628
NsS'winmobile-trace-file'
p629
NsS'roku-splash-color'
p630
NsS'roku-icon-focus-hd'
p631
NsS'android-icon-ldpi'
p632
NsS'iphone-distribution-key'
p633
NsS'networking'
p634
NsS'winmobile-install-folder'
p635
NsS'android-external-res'
p636
(lp637
sS'winmobile-ampd-part-number'
p638
NsS'android-icon-gallery'
p639
NsS'bada-signed'
p640
NsS'android-supports-gl-texture'
p641
(lp642
sS'iphone-apple-wwdr-cert'
p643
NsS'psp-snd0'
p644
NsS'iphone-extra-sections'
p645
NsS'blackberry-keystore'
p646
NsS'iphone-nosign'
p647
NsS'brew-priviledges'
p648
NsS'psp-icon1'
p649
NsS'iphone-icon-large'
p650
NsS'android-storepass'
p651
NsS'playbook-storepass'
p652
NsS'iphone-info-plist'
p653
NsS'wp8-product-id'
p654
NsS'android-extra-manifest'
p655
(lp656
sS'wp8-exclude-low-mem'
p657
NsS'android-custom-activity'
p658
NsS'version-minor'
p659
NsS'iphone-icon-ipad'
p660
NsS'bada-appid'
p661
NsS'psp-appversion'
p662
NsS'roku-hidden'
p663
NsS'psp-copyright'
p664
NsS'symbian-maxheapsize'
p665
NsS'embed-icf'
p666
NsS'psp-titlename'
p667
NsS'symbian-icon1-mask'
p668
NsS'nds-makercode'
p669
NsS'symbian8-uid'
p670
NsS'webos-appinfo'
p671
NsS'symbian-cert-key'
p672
NsS'android-icon'
p673
NsS'webos-appid'
p674
NsS'android-icon-nonstandard'
p675
NsS'roku-icon-side-hd'
p676
NsS'iphone-icon-settings'
p677
NsS'wp8-tile-fliptemplate-medium-back-image'
p678
NsS'iphone-distribution-cert'
p679
NsS'osx-icon'
p680
NsS'nds-titlename'
p681
NsS'splashscreen-auto-onblack'
p682
NsS'manufacturer'
p683
NsS'nds-romheadertemplate'
p684
NsS'webos-icon'
p685
NsS'nds-bannertitle-en'
p686
NsS'win32-ext-dll'
p687
(lp688
sS'psp-dlgicon0'
p689
NsS'iphone-development-key'
p690
NsS'psp-discid'
p691
NsS'winmobile-icon48'
p692
NsS'android-manifest'
p693
NsS'playbook-cskpass'
p694
NsS'android-so'
p695
(lp696
sS'wp8-higher-mem'
p697
NsS'bada-splash'
p698
NsS'version-revision'
p699
NsS'roku-icon-focus-sd'
p700
NsS'android-icon-mdpi'
p701
NsS'android-keystore'
p702
NsS'osx-ext-dll'
p703
(lp704
sS'version-string'
p705
NsS'winmobile-png90'
p706
NsS'roku-splash-screen-hd'
p707
NsS'iphone-icon-ipad-high-res'
p708
NsS'iphone-disable-ipad'
p709
NsS'uiq3-icon1-format'
p710
NsS'iphone-bundle-url-schemes'
p711
NsS'nds-icon'
p712
NsS'roku-screensaver-private'
p713
NsS'wp8-tile-fliptemplate-small-image'
p714
NsS'winmobile-png60'
p715
NsS'playbook-authorid'
p716
NsS'android_extra_strings'
p717
NsS'playbook-icon'
p718
NsS'uid'
p719
NsS'icon'
p720
S'c:/users/pietro/documents/github/patriot-missile-defense/icons'
p721
sS'iphone-signing-identity'
p722
NsS'brew-icon-medium'
p723
NsS'roku-persist-quota'
p724
NsS'symbian-icon2-mask-black'
p725
NsS'winmobile-icon64'
p726
NsS'blackberry-phone-icon'
p727
NsS'iphone-enable-4inch-retina'
p728
NsS'pkguid-as-uid'
p729
NsS'symbian-icon1-mask-black'
p730
NsS'uiq3-icon2'
p731
NsS'uiq3-icon2-format'
p732
NsS'pub-sign-key'
p733
NsS'nds-bannertitle-fr'
p734
NsS'win32-pref-windowtitle'
p735
NsS'symbian-disable-ecompxl'
p736
NsS'psp-dlgprotectdocument'
p737
NsS'symbian-soundrecordsupport'
p738
NsS'splashscreen-use-all'
p739
NsS'roku-screensaver-title'
p740
NsS'brew-clsid'
p741
NsS'wp8-genre-isgame'
p742
NsS'brew-icon-small'
p743
NsS'psp-dlgpic2'
p744
NsS'bada-icon'
p745
NsS'psp-dlgpic0'
p746
NsS'psp-pic0'
p747
NsS'psp-pic1'
p748
NsS'iphone-icon'
p749
NsS'psp-icon0'
p750
NsS'blackberry-permissions-access-shared'
p751
NsS'uiq3-icon3-format'
p752
NsS'version-major'
p753
NsS'iphone_bundle_localisations'
p754
NsS'winmobile-icon'
p755
NsS'roku-requires-mkv'
p756
NsS'blackberry-author'
p757
NsS'symbian-keypwd'
p758
NsS'iphone-no-splash'
p759
NsS'playbook-access-shared'
p760
NsS'psp-dlghealthwarning'
p761
NsS'iphone-link-libs'
p762
(lp763
sS'wp8-custom-manifest'
p764
NsS'iphone-splash'
p765
NsS'nds-bannertitle-ge'
p766
NsS'android_icon_gallery'
p767
NsS'brew-icon-large'
p768
NsS'iphone-app-fonts'
p769
NsS'symbian-icon2-mask'
p770
NsS'iphone-sign-for-distribution'
p771
NsS'android-unsigned'
p772
NsS'arch'
p773
NsS'uiq3-icon3'
p774
NsS'wp8-publisher-id'
p775
NsS'uiq3-icon1'
p776
NsS'itunes-artwork'
p777
NsS'android-x86'
p778
NsS'win32-icon'
p779
NsS'assets'
p780
NsS'symbian-key'
p781
NsS'app-icf'
p782
NsS'blackberry-storepass'
p783
NsS'winmobile-cab-compress'
p784
NsS'wp8-tile-fliptemplate-back-title'
p785
NsS'wp8-custom-manifest-fill'
p786
NsS'wp8-exclude-wxga'
p787
NsS'brew-compress-loader'
p788
NsS'wp8-tile-fliptemplate-title'
p789
NsS'uiq3-icon2-mask'
p790
NsS'iphone-icon-ipad-search'
p791
NsS'symbian-icon-svg'
p792
NsS'android-extra-strings'
p793
NsS'iphone-splashscreen-portrait'
p794
NsS'iphone-bundle-localisations'
p795
Nssg278
g502
sbsS'artbuild'
p796
g252
(g503
g254
Ntp797
Rp798
(dp799
g507
I0
sg508
S'artbuild'
p800
sg510
g256
sg511
(lp801
S'win32'
p802
asg285
(lp803
sg513
(dp804
g515
(lp805
sg517
Nsg518
Nsg519
Nsg520
Nsg521
Nsg522
Nsg523
Nsg524
Nsg525
Nsg648
Nsg526
(lp806
sg528
Nsg529
Nsg530
Nsg531
Nsg532
Nsg533
Nsg534
Nsg535
Nsg536
Nsg537
Nsg538
Nsg539
Nsg540
(lp807
sg542
Nsg543
(lp808
sg545
Nsg546
Nsg547
Nsg548
Nsg549
Nsg550
Nsg551
Nsg552
Nsg553
Nsg554
Nsg555
Nsg556
Nsg557
Nsg558
Nsg559
Nsg560
Nsg561
Nsg562
Nsg563
Nsg564
Nsg565
Nsg566
Nsg567
Nsg568
Nsg569
Nsg570
(lp809
sg572
Nsg573
Nsg574
Nsg575
Nsg576
Nsg577
Nsg578
Nsg579
Nsg580
Nsg581
Nsg582
Nsg583
Nsg584
Nsg585
Nsg586
Nsg587
Nsg588
Nsg590
Nsg591
Nsg592
Nsg593
(lp810
sg595
Nsg596
Nsg597
Nsg693
Nsg598
Nsg599
Nsg600
Nsg601
Nsg602
Nsg603
Nsg604
Nsg605
Nsg606
Nsg607
Nsg609
Nsg610
Nsg611
Nsg612
Nsg613
Nsg614
Nsg615
Nsg616
(lp811
sg618
Nsg619
Nsg620
Nsg621
Nsg765
Nsg623
Nsg624
Nsg625
Nsg626
Nsg627
Nsg628
Nsg629
Nsg630
Nsg631
Nsg632
Nsg633
Nsg634
Nsg635
Nsg636
(lp812
sg638
Nsg639
Nsg640
Nsg641
(lp813
sg643
Nsg644
Nsg645
Nsg646
Nsg647
Nsg608
Nsg649
Nsg650
Nsg651
Nsg652
Nsg653
Nsg654
Nsg655
(lp814
sg714
Nsg657
Nsg658
Nsg659
Nsg660
Nsg661
Nsg662
Nsg663
Nsg664
Nsg665
Nsg666
Nsg667
Nsg668
Nsg669
Nsg670
Nsg671
Nsg672
Nsg673
Nsg674
Nsg675
Nsg676
Nsg677
Nsg678
Nsg679
Nsg680
Nsg681
Nsg682
Nsg683
Nsg684
Nsg685
Nsg686
Nsg687
(lp815
sg689
Nsg690
Nsg691
Nsg692
Nsg772
Nsg694
Nsg695
(lp816
sg697
Nsg698
Nsg699
Nsg700
Nsg701
Nsg702
Nsg703
(lp817
sg705
Nsg706
Nsg707
Nsg708
Nsg709
Nsg710
Nsg711
Nsg712
Nsg713
Nsg589
Nsg715
Nsg716
Nsg717
Nsg718
Nsg719
Nsg720
Nsg722
Nsg723
Nsg724
Nsg725
Nsg726
Nsg727
Nsg728
Nsg729
Nsg730
Nsg731
Nsg732
Nsg733
Nsg734
Nsg735
Nsg736
Nsg738
Nsg739
Nsg740
Nsg741
Nsg742
Nsg743
Nsg744
Nsg745
Nsg746
Nsg747
Nsg748
Nsg749
Nsg750
Nsg751
Nsg752
Nsg753
Nsg754
Nsg755
Nsg756
Nsg757
Nsg758
Nsg759
Nsg760
Nsg761
Nsg762
(lp818
sg764
Nsg622
Nsg766
Nsg767
Nsg768
Nsg769
Nsg770
Nsg771
Nsg737
Nsg773
Nsg774
Nsg775
Nsg776
Nsg777
Nsg778
Nsg779
Nsg780
Nsg781
Nsg782
Nsg783
Nsg784
Nsg785
Nsg786
Nsg787
Nsg788
Nsg789
Nsg790
Nsg791
Nsg792
Nsg793
Nsg794
Nsg795
Nssg278
g796
sbssS'platform'
p819
S'S3E'
p820
sg58
S'1.0'
p821
sS'arcade_platform'
p822
g4
sS'extensions'
p823
(dp824
sS'source_groups_tree'
p825
(dp826
S'(libpng)'
p827
(dp828
S'h'
p829
(dp830
S'c:/marmalade/6.3/modules/third_party/libpng/h/png.h'
p831
(lp832
I1
a(dp833
asS'c:/marmalade/6.3/modules/third_party/libpng/h/pngconf.h'
p834
(lp835
I1
ag833
assS'c:/marmalade/6.3/modules/third_party/libpng/libpng.mkf'
p836
(lp837
I1
a(dp838
assS'(libjpeg)'
p839
(dp840
g829
(dp841
S'c:/marmalade/6.3/modules/third_party/libjpeg/h/jmemsys.h'
p842
(lp843
I1
a(dp844
asS'c:/marmalade/6.3/modules/third_party/libjpeg/h/jinclude.h'
p845
(lp846
I1
ag844
asS'c:/marmalade/6.3/modules/third_party/libjpeg/h/jconfig.h'
p847
(lp848
I1
ag844
asS'c:/marmalade/6.3/modules/third_party/libjpeg/h/cderror.h'
p849
(lp850
I1
ag844
asS'c:/marmalade/6.3/modules/third_party/libjpeg/h/transupp.h'
p851
(lp852
I1
ag844
asS'c:/marmalade/6.3/modules/third_party/libjpeg/h/jmorecfg.h'
p853
(lp854
I1
ag844
asS'c:/marmalade/6.3/modules/third_party/libjpeg/h/jerror.h'
p855
(lp856
I1
ag844
asS'c:/marmalade/6.3/modules/third_party/libjpeg/h/jversion.h'
p857
(lp858
I1
ag844
asS'c:/marmalade/6.3/modules/third_party/libjpeg/h/cdjpeg.h'
p859
(lp860
I1
ag844
asS'c:/marmalade/6.3/modules/third_party/libjpeg/h/jchuff.h'
p861
(lp862
I1
ag844
asS'c:/marmalade/6.3/modules/third_party/libjpeg/h/jdct.h'
p863
(lp864
I1
ag844
asS'c:/marmalade/6.3/modules/third_party/libjpeg/h/jpeglib.h'
p865
(lp866
I1
ag844
asS'c:/marmalade/6.3/modules/third_party/libjpeg/h/jdhuff.h'
p867
(lp868
I1
ag844
asS'c:/marmalade/6.3/modules/third_party/libjpeg/h/jpegint.h'
p869
(lp870
I1
ag844
assS'c:/marmalade/6.3/modules/third_party/libjpeg/libjpeg.mkf'
p871
(lp872
I1
a(dp873
assS'(tiniconv)'
p874
(dp875
S'c:/marmalade/6.3/modules/third_party/tiniconv/source/tiniconv.h'
p876
(lp877
I1
a(dp878
asS'c:/marmalade/6.3/modules/third_party/tiniconv/source/tiniconv_int.h'
p879
(lp880
I1
ag878
asS'c:/marmalade/6.3/modules/third_party/tiniconv/tiniconv.mkf'
p881
(lp882
I1
a(dp883
assS'(app)'
p884
(dp885
S'Source'
p886
(dp887
S'c:/users/pietro/documents/github/patriot-missile-defense/source/game.cpp'
p888
(lp889
I1
a(dp890
asS'c:/users/pietro/documents/github/patriot-missile-defense/source/localise.h'
p891
(lp892
I1
ag890
asS'c:/users/pietro/documents/github/patriot-missile-defense/source/effects.cpp'
p893
(lp894
I1
ag890
asS'c:/users/pietro/documents/github/patriot-missile-defense/source/titlescreen.h'
p895
(lp896
I1
ag890
asS'c:/users/pietro/documents/github/patriot-missile-defense/source/main.cpp'
p897
(lp898
I1
ag890
asS'c:/users/pietro/documents/github/patriot-missile-defense/source/localise.cpp'
p899
(lp900
I1
ag890
asS'c:/users/pietro/documents/github/patriot-missile-defense/source/game.h'
p901
(lp902
I1
ag890
asS'c:/users/pietro/documents/github/patriot-missile-defense/source/rendering.cpp'
p903
(lp904
I1
ag890
asS'c:/users/pietro/documents/github/patriot-missile-defense/source/effects.h'
p905
(lp906
I1
ag890
asS'c:/users/pietro/documents/github/patriot-missile-defense/source/rendering.h'
p907
(lp908
I1
ag890
assS'Data'
p909
(dp910
S'c:/users/pietro/documents/github/patriot-missile-defense/data/resources.group'
p911
(lp912
I1
ag890
assS'c:/users/pietro/documents/github/patriot-missile-defense/app.mkf'
p913
(lp914
I1
a(dp915
assS"'Marmalade Studio'"
p916
(dp917
S'iwgl'
p918
(dp919
S'c:/marmalade/6.3/modules/iwgl/h/IwGL.h'
p920
(lp921
I1
a(dp922
asS'c:/marmalade/6.3/modules/iwgl/iwgl.mkf'
p923
(lp924
I1
a(dp925
asS'c:/marmalade/6.3/modules/iwgl/docs/iwgl.config.txt'
p926
(lp927
I1
ag922
asS'c:/marmalade/6.3/modules/iwgl/h/IwGLExt.h'
p928
(lp929
I1
ag922
assS'iw2d'
p930
(dp931
S'c:/marmalade/6.3/modules/iw2d/iw2d.mkf'
p932
(lp933
I1
a(dp934
asS'c:/marmalade/6.3/modules/iw2d/docs/iw2d_public.defines.txt'
p935
(lp936
I1
a(dp937
asS'c:/marmalade/6.3/modules/iw2d/h/Iw2D.h'
p938
(lp939
I1
ag937
asS'c:/marmalade/6.3/modules/iw2d/docs/iw2d.config.txt'
p940
(lp941
I1
ag937
assS'iwgxfont'
p942
(dp943
S'c:/marmalade/6.3/modules/iwgxfont/iwgxfont.mkf'
p944
(lp945
I1
a(dp946
asS'c:/marmalade/6.3/modules/iwgxfont/docs/iwgxfont.config.txt'
p947
(lp948
I1
a(dp949
asS'c:/marmalade/6.3/modules/iwgxfont/h/IwGxFontPreparedData.h'
p950
(lp951
I1
ag949
asS'c:/marmalade/6.3/modules/iwgxfont/h/IwGxFontState.h'
p952
(lp953
I1
ag949
asS'c:/marmalade/6.3/modules/iwgxfont/docs/iwgxfont_public.defines.txt'
p954
(lp955
I1
ag949
asS'c:/marmalade/6.3/modules/iwgxfont/h/IwGxFontGlyph.h'
p956
(lp957
I1
ag949
asS'c:/marmalade/6.3/modules/iwgxfont/h/IwGxFontContainer.h'
p958
(lp959
I1
ag949
asS'c:/marmalade/6.3/modules/iwgxfont/h/IwGxFont.h'
p960
(lp961
I1
ag949
asS'c:/marmalade/6.3/modules/iwgxfont/h/IwGxFontTypes.h'
p962
(lp963
I1
ag949
assS'iwgeom'
p964
(dp965
S'c:/marmalade/6.3/modules/iwgeom/h/IwGeomQuat.h'
p966
(lp967
I1
a(dp968
asS'c:/marmalade/6.3/modules/iwgeom/h/IwGeom.h'
p969
(lp970
I1
ag968
asS'c:/marmalade/6.3/modules/iwgeom/h/IwGeomSphere.h'
p971
(lp972
I1
ag968
asS'c:/marmalade/6.3/modules/iwgeom/h/IwGeomVec3.h'
p973
(lp974
I1
ag968
asS'c:/marmalade/6.3/modules/iwgeom/h/IwGeomMat2D.h'
p975
(lp976
I1
ag968
asS'c:/marmalade/6.3/modules/iwgeom/h/IwGeomVec2.h'
p977
(lp978
I1
ag968
asS'c:/marmalade/6.3/modules/iwgeom/h/IwGeomMat.h'
p979
(lp980
I1
ag968
asS'c:/marmalade/6.3/modules/iwgeom/h/IwGeomSQuat.h'
p981
(lp982
I1
ag968
asS'c:/marmalade/6.3/modules/iwgeom/docs/iwgeom.config.txt'
p983
(lp984
I1
ag968
asS'c:/marmalade/6.3/modules/iwgeom/h/IwGeomFIntersect.h'
p985
(lp986
I1
ag968
asS'c:/marmalade/6.3/modules/iwgeom/h/IwGeomVec4.h'
p987
(lp988
I1
ag968
asS'c:/marmalade/6.3/modules/iwgeom/h/IwGeomFBBox.h'
p989
(lp990
I1
ag968
asS'c:/marmalade/6.3/modules/iwgeom/iwgeom.mkf'
p991
(lp992
I1
a(dp993
asS'c:/marmalade/6.3/modules/iwgeom/h/IwGeomPlane.h'
p994
(lp995
I1
ag968
asS'c:/marmalade/6.3/modules/iwgeom/h/IwGeomIntersect.h'
p996
(lp997
I1
ag968
asS'c:/marmalade/6.3/modules/iwgeom/h/IwGeomFVec4.h'
p998
(lp999
I1
ag968
asS'c:/marmalade/6.3/modules/iwgeom/h/IwGeomFMat2D.h'
p1000
(lp1001
I1
ag968
asS'c:/marmalade/6.3/modules/iwgeom/h/IwGeomSVec4.h'
p1002
(lp1003
I1
ag968
asS'c:/marmalade/6.3/modules/iwgeom/h/IwGeomCore.h'
p1004
(lp1005
I1
ag968
asS'c:/marmalade/6.3/modules/iwgeom/h/IwGeomMenu.h'
p1006
(lp1007
I1
ag968
asS'c:/marmalade/6.3/modules/iwgeom/h/IwGeomFQuat.h'
p1008
(lp1009
I1
ag968
asS'c:/marmalade/6.3/modules/iwgeom/h/IwGeomSVec3.h'
p1010
(lp1011
I1
ag968
asS'c:/marmalade/6.3/modules/iwgeom/h/IwGeomFMat.h'
p1012
(lp1013
I1
ag968
asS'c:/marmalade/6.3/modules/iwgeom/h/IwGeomFVec3.h'
p1014
(lp1015
I1
ag968
asS'c:/marmalade/6.3/modules/iwgeom/h/IwGeomSqrt.h'
p1016
(lp1017
I1
ag968
asS'c:/marmalade/6.3/modules/iwgeom/h/IwGeomBBox.h'
p1018
(lp1019
I1
ag968
asS'c:/marmalade/6.3/modules/iwgeom/h/IwGeomSVec2.h'
p1020
(lp1021
I1
ag968
asS'c:/marmalade/6.3/modules/iwgeom/h/IwGeomLegacy.h'
p1022
(lp1023
I1
ag968
asS'c:/marmalade/6.3/modules/iwgeom/h/IwGeomVec.h'
p1024
(lp1025
I1
ag968
asS'c:/marmalade/6.3/modules/iwgeom/h/IwGeomFVec2.h'
p1026
(lp1027
I1
ag968
asS'c:/marmalade/6.3/modules/iwgeom/h/IwGeomFPlane.h'
p1028
(lp1029
I1
ag968
asS'c:/marmalade/6.3/modules/iwgeom/h/IwGeomFSphere.h'
p1030
(lp1031
I1
ag968
assS'iwresmanager'
p1032
(dp1033
S'c:/marmalade/6.3/modules/iwresmanager/h/IwResGroup.h'
p1034
(lp1035
I1
a(dp1036
asS'c:/marmalade/6.3/modules/iwresmanager/iwresmanager.mkf'
p1037
(lp1038
I1
a(dp1039
asS'c:/marmalade/6.3/modules/iwresmanager/h/IwResHandlerImage.h'
p1040
(lp1041
I1
ag1036
asS'c:/marmalade/6.3/modules/iwresmanager/h/IwResManagerClass.h'
p1042
(lp1043
I1
ag1036
asS'c:/marmalade/6.3/modules/iwresmanager/h/IwResHandler.h'
p1044
(lp1045
I1
ag1036
asS'c:/marmalade/6.3/modules/iwresmanager/h/IwResHandlerITX.h'
p1046
(lp1047
I1
ag1036
asS'c:/marmalade/6.3/modules/iwresmanager/docs/iwresmanager.config.txt'
p1048
(lp1049
I1
ag1036
asS'c:/marmalade/6.3/modules/iwresmanager/h/IwResSerialise.h'
p1050
(lp1051
I1
ag1036
asS'c:/marmalade/6.3/modules/iwresmanager/h/IwResManager.h'
p1052
(lp1053
I1
ag1036
asS'c:/marmalade/6.3/modules/iwresmanager/h/IwResHandlerGROUP.h'
p1054
(lp1055
I1
ag1036
assS'iwgx'
p1056
(dp1057
S'c:/marmalade/6.3/modules/iwgx/h/IwGxMetrics.h'
p1058
(lp1059
I1
a(dp1060
asS'c:/marmalade/6.3/modules/iwgx/docs/iwgx.config.txt'
p1061
(lp1062
I1
ag1060
asS'c:/marmalade/6.3/modules/iwgx/h/IwGx.h'
p1063
(lp1064
I1
ag1060
asS'c:/marmalade/6.3/modules/iwgx/h/IwDebugPrim.h'
p1065
(lp1066
I1
ag1060
asS'c:/marmalade/6.3/modules/iwgx/h/IwClip.inl'
p1067
(lp1068
I1
ag1060
asS'c:/marmalade/6.3/modules/iwgx/docs/iwgx_public.defines.txt'
p1069
(lp1070
I1
ag1060
asS'c:/marmalade/6.3/modules/iwgx/h/IwGxState.h'
p1071
(lp1072
I1
ag1060
asS'c:/marmalade/6.3/modules/iwgx/h/IwGxError.h'
p1073
(lp1074
I1
ag1060
asS'c:/marmalade/6.3/modules/iwgx/h/IwMaterial.h'
p1075
(lp1076
I1
ag1060
asS'c:/marmalade/6.3/modules/iwgx/h/IwMatAnim.h'
p1077
(lp1078
I1
ag1060
asS'c:/marmalade/6.3/modules/iwgx/h/IwGxSurface.h'
p1079
(lp1080
I1
ag1060
asS'c:/marmalade/6.3/modules/iwgx/h/IwResHandlerMTL.h'
p1081
(lp1082
I1
ag1060
asS'c:/marmalade/6.3/modules/iwgx/h/IwTPage.h'
p1083
(lp1084
I1
ag1060
asS'c:/marmalade/6.3/modules/iwgx/h/IwFColour.h'
p1085
(lp1086
I1
ag1060
asS'c:/marmalade/6.3/modules/iwgx/h/IwColour.h'
p1087
(lp1088
I1
ag1060
asS'c:/marmalade/6.3/modules/iwgx/h/IwGxShaderTechnique.h'
p1089
(lp1090
I1
ag1060
asS'c:/marmalade/6.3/modules/iwgx/h/IwGxTypes.h'
p1091
(lp1092
I1
ag1060
asS'c:/marmalade/6.3/modules/iwgx/iwgx.mkf'
p1093
(lp1094
I1
a(dp1095
asS'c:/marmalade/6.3/modules/iwgx/h/IwGxFuncTable.h'
p1096
(lp1097
I1
ag1060
asS'c:/marmalade/6.3/modules/iwgx/h/IwGxStream.h'
p1098
(lp1099
I1
ag1060
asS'c:/marmalade/6.3/modules/iwgx/h/IwClip.h'
p1100
(lp1101
I1
ag1060
asS'c:/marmalade/6.3/modules/iwgx/h/IwGxPrint.h'
p1102
(lp1103
I1
ag1060
asS'c:/marmalade/6.3/modules/iwgx/h/IwGxTransformSW.h'
p1104
(lp1105
I1
ag1060
asS'c:/marmalade/6.3/modules/iwgx/h/IwGxDebug.h'
p1106
(lp1107
I1
ag1060
asS'c:/marmalade/6.3/modules/iwgx/h/IwTexture.h'
p1108
(lp1109
I1
ag1060
assS'iwutil'
p1110
(dp1111
S'c:/marmalade/6.3/modules/iwutil/h/IwOptimiseARM.h'
p1112
(lp1113
I1
a(dp1114
asS'c:/marmalade/6.3/modules/iwutil/h/IwDebug.h'
p1115
(lp1116
I1
ag1114
asS'c:/marmalade/6.3/modules/iwutil/h/IwFibre.h'
p1117
(lp1118
I1
ag1114
asS'c:/marmalade/6.3/modules/iwutil/h/IwTextParserITX.h'
p1119
(lp1120
I1
ag1114
asS'c:/marmalade/6.3/modules/iwutil/h/IwCore.h'
p1121
(lp1122
I1
ag1114
asS'c:/marmalade/6.3/modules/iwutil/h/IwFile.h'
p1123
(lp1124
I1
ag1114
asS'c:/marmalade/6.3/modules/iwutil/h/IwString.h'
p1125
(lp1126
I1
ag1114
asS'c:/marmalade/6.3/modules/iwutil/h/IwOptimiseSize.h'
p1127
(lp1128
I1
ag1114
asS'c:/marmalade/6.3/modules/iwutil/h/IwArray.h'
p1129
(lp1130
I1
ag1114
asS'c:/marmalade/6.3/modules/iwutil/h/IwRuntime.h'
p1131
(lp1132
I1
ag1114
asS'c:/marmalade/6.3/modules/iwutil/h/IwDivide.h'
p1133
(lp1134
I1
ag1114
asS'c:/marmalade/6.3/modules/iwutil/h/IwPath.h'
p1135
(lp1136
I1
ag1114
asS'c:/marmalade/6.3/modules/iwutil/h/IwUtilInitTerm.h'
p1137
(lp1138
I1
ag1114
asS'c:/marmalade/6.3/modules/iwutil/iwutil.mkf'
p1139
(lp1140
I1
a(dp1141
asS'c:/marmalade/6.3/modules/iwutil/h/IwMemManagerDL.h'
p1142
(lp1143
I1
ag1114
asS'c:/marmalade/6.3/modules/iwutil/h/IwMemory.h'
p1144
(lp1145
I1
ag1114
asS'c:/marmalade/6.3/modules/iwutil/h/IwChar.h'
p1146
(lp1147
I1
ag1114
asS'c:/marmalade/6.3/modules/iwutil/h/IwUtil.h'
p1148
(lp1149
I1
ag1114
asS'c:/marmalade/6.3/modules/iwutil/docs/iwutil.config.txt'
p1150
(lp1151
I1
ag1114
asS'c:/marmalade/6.3/modules/iwutil/h/IwSerialise.h'
p1152
(lp1153
I1
ag1114
asS'c:/marmalade/6.3/modules/iwutil/h/IwUncopyable.h'
p1154
(lp1155
I1
ag1114
asS'c:/marmalade/6.3/modules/iwutil/h/IwVariableBitField.h'
p1156
(lp1157
I1
ag1114
asS'c:/marmalade/6.3/modules/iwutil/h/IwOptimiseThumb.h'
p1158
(lp1159
I1
ag1114
asS'c:/marmalade/6.3/modules/iwutil/h/IwEvent.h'
p1160
(lp1161
I1
ag1114
asS'c:/marmalade/6.3/modules/iwutil/h/IwCopyingPtr.h'
p1162
(lp1163
I1
ag1114
asS'c:/marmalade/6.3/modules/iwutil/h/IwProfileMenu.h'
p1164
(lp1165
I1
ag1114
asS'c:/marmalade/6.3/modules/iwutil/h/IwMemBucket.h'
p1166
(lp1167
I1
ag1114
asS'c:/marmalade/6.3/modules/iwutil/h/IwTypes.h'
p1168
(lp1169
I1
ag1114
asS'c:/marmalade/6.3/modules/iwutil/h/IwDivTable.h'
p1170
(lp1171
I1
ag1114
asS'c:/marmalade/6.3/modules/iwutil/h/IwList.h'
p1172
(lp1173
I1
ag1114
asS'c:/marmalade/6.3/modules/iwutil/h/IwUTF8.h'
p1174
(lp1175
I1
ag1114
asS'c:/marmalade/6.3/modules/iwutil/h/IwMemBucketHelpers.h'
p1176
(lp1177
I1
ag1114
asS'c:/marmalade/6.3/modules/iwutil/h/IwRandom.h'
p1178
(lp1179
I1
ag1114
asS'c:/marmalade/6.3/modules/iwutil/h/IwClassFactory.h'
p1180
(lp1181
I1
ag1114
asS'c:/marmalade/6.3/modules/iwutil/h/IwMenu.h'
p1182
(lp1183
I1
ag1114
asS'c:/marmalade/6.3/modules/iwutil/h/IwBuffer.h'
p1184
(lp1185
I1
ag1114
asS'c:/marmalade/6.3/modules/iwutil/h/IwResource.h'
p1186
(lp1187
I1
ag1114
asS'c:/marmalade/6.3/modules/iwutil/h/IwHashString.h'
p1188
(lp1189
I1
ag1114
asS'c:/marmalade/6.3/modules/iwutil/h/IwImageHelper.h'
p1190
(lp1191
I1
ag1114
asS'c:/marmalade/6.3/modules/iwutil/h/IwTextParseable.h'
p1192
(lp1193
I1
ag1114
asS'c:/marmalade/6.3/modules/iwutil/h/IwManaged.h'
p1194
(lp1195
I1
ag1114
asS'c:/marmalade/6.3/modules/iwutil/h/IwManagedList.h'
p1196
(lp1197
I1
ag1114
asS'c:/marmalade/6.3/modules/iwutil/h/IwSingleton.h'
p1198
(lp1199
I1
ag1114
asS'c:/marmalade/6.3/modules/iwutil/h/IwAutoFile.h'
p1200
(lp1201
I1
ag1114
asS'c:/marmalade/6.3/modules/iwutil/h/IwImage.h'
p1202
(lp1203
I1
ag1114
asS'c:/marmalade/6.3/modules/iwutil/h/IwMath.h'
p1204
(lp1205
I1
ag1114
asS'c:/marmalade/6.3/modules/iwutil/h/IwAllocator.h'
p1206
(lp1207
I1
ag1114
asS'c:/marmalade/6.3/modules/iwutil/h/IwOptimiseSpeed.h'
p1208
(lp1209
I1
ag1114
asS'c:/marmalade/6.3/modules/iwutil/h/IwTextParser.h'
p1210
(lp1211
I1
ag1114
asS'c:/marmalade/6.3/modules/iwutil/h/IwKeymap.h'
p1212
(lp1213
I1
ag1114
asssS'(zlib)'
p1214
(dp1215
g829
(dp1216
S'c:/marmalade/6.3/modules/third_party/zlib/h/zlib.h'
p1217
(lp1218
I1
a(dp1219
asS'c:/marmalade/6.3/modules/third_party/zlib/h/zconf.h'
p1220
(lp1221
I1
ag1219
assS'c:/marmalade/6.3/modules/third_party/zlib/zlib.mkf'
p1222
(lp1223
I1
a(dp1224
asssS'files'
p1225
(dp1226
S'IwGxFontPreparedData.h'
p1227
g252
(cmkb_main
File
p1228
g254
Ntp1229
Rp1230
(dp1231
S'flags'
p1232
g949
sS'group'
p1233
(lp1234
S"'Marmalade Studio'"
p1235
ag942
asg278
g950
sbsS'iterator'
p1236
g252
(g1228
g254
Ntp1237
Rp1238
(dp1239
g1232
(dp1240
sg1233
(lp1241
S"'Marmalade System (S3E)'"
p1242
aS'stdc headers'
p1243
aS'c++'
p1244
asg278
S'c:/marmalade/6.3/s3e/h/std/c++/iterator'
p1245
sbsS'IwGeomPlane.h'
p1246
g252
(g1228
g254
Ntp1247
Rp1248
(dp1249
g1232
g968
sg1233
(lp1250
S"'Marmalade Studio'"
p1251
ag964
asg278
g994
sbsS's3e.h'
p1252
g252
(g1228
g254
Ntp1253
Rp1254
(dp1255
g1232
g1240
sg1233
(lp1256
g1242
asg278
S'c:/marmalade/6.3/s3e/h/s3e.h'
p1257
sbsS'errno.h'
p1258
g252
(g1228
g254
Ntp1259
Rp1260
(dp1261
g1232
g1240
sg1233
(lp1262
g1242
aS'stdc headers'
p1263
asg278
S'c:/marmalade/6.3/s3e/h/std/errno.h'
p1264
sbsS'IwSingleton.h'
p1265
g252
(g1228
g254
Ntp1266
Rp1267
(dp1268
g1232
g1114
sg1233
(lp1269
S"'Marmalade Studio'"
p1270
ag1110
asg278
g1198
sbsS'dlfcn.h'
p1271
g252
(g1228
g254
Ntp1272
Rp1273
(dp1274
g1232
g1240
sg1233
g1262
sg278
S'c:/marmalade/6.3/s3e/h/std/dlfcn.h'
p1275
sbsS'stdio_streambuf'
p1276
g252
(g1228
g254
Ntp1277
Rp1278
(dp1279
g1232
g1240
sg1233
g1241
sg278
S'c:/marmalade/6.3/s3e/h/std/c++/stdio_streambuf'
p1280
sbsS'sched.h'
p1281
g252
(g1228
g254
Ntp1282
Rp1283
(dp1284
g1232
g1240
sg1233
g1262
sg278
S'c:/marmalade/6.3/s3e/h/std/sched.h'
p1285
sbsS'IwGeomFMat2D.h'
p1286
g252
(g1228
g254
Ntp1287
Rp1288
(dp1289
g1232
g968
sg1233
g1250
sg278
g1000
sbsS's3eExt.h'
p1290
g252
(g1228
g254
Ntp1291
Rp1292
(dp1293
g1232
g1240
sg1233
g1256
sg278
S'c:/marmalade/6.3/s3e/h/s3eExt.h'
p1294
sbsS'grp.h'
p1295
g252
(g1228
g254
Ntp1296
Rp1297
(dp1298
g1232
g1240
sg1233
g1262
sg278
S'c:/marmalade/6.3/s3e/h/std/grp.h'
p1299
sbsS'list'
p1300
g252
(g1228
g254
Ntp1301
Rp1302
(dp1303
g1232
g1240
sg1233
g1241
sg278
S'c:/marmalade/6.3/s3e/h/std/c++/list'
p1304
sbsS'istream'
p1305
g252
(g1228
g254
Ntp1306
Rp1307
(dp1308
g1232
g1240
sg1233
g1241
sg278
S'c:/marmalade/6.3/s3e/h/std/c++/istream'
p1309
sbsS'jpeglib.h'
p1310
g252
(g1228
g254
Ntp1311
Rp1312
(dp1313
g1232
g844
sg1233
(lp1314
g839
ag829
asg278
g865
sbsS'iw2d_public.defines.txt'
p1315
g252
(g1228
g254
Ntp1316
Rp1317
(dp1318
g1232
g937
sg1233
(lp1319
S"'Marmalade Studio'"
p1320
ag930
asg278
g935
sbsS'iostream.h'
p1321
g252
(g1228
g254
Ntp1322
Rp1323
(dp1324
g1232
g1240
sg1233
g1241
sg278
S'c:/marmalade/6.3/s3e/h/std/c++/iostream.h'
p1325
sbsS'string'
p1326
g252
(g1228
g254
Ntp1327
Rp1328
(dp1329
g1232
g1240
sg1233
g1241
sg278
S'c:/marmalade/6.3/s3e/h/std/c++/string'
p1330
sbsS'IwMemory.h'
p1331
g252
(g1228
g254
Ntp1332
Rp1333
(dp1334
g1232
g1114
sg1233
g1269
sg278
g1144
sbsS'IwGL.h'
p1335
g252
(g1228
g254
Ntp1336
Rp1337
(dp1338
g1232
g922
sg1233
(lp1339
S"'Marmalade Studio'"
p1340
ag918
asg278
g920
sbsS'iw2d.config.txt'
p1341
g252
(g1228
g254
Ntp1342
Rp1343
(dp1344
g1232
g937
sg1233
g1319
sg278
g940
sbsS'iomanip'
p1345
g252
(g1228
g254
Ntp1346
Rp1347
(dp1348
g1232
g1240
sg1233
g1241
sg278
S'c:/marmalade/6.3/s3e/h/std/c++/iomanip'
p1349
sbsS'iwgeom.mkf'
p1350
g252
(g1228
g254
Ntp1351
Rp1352
(dp1353
g1232
g993
sg1233
g1250
sg278
g991
sbsS'IwGxError.h'
p1354
g252
(g1228
g254
Ntp1355
Rp1356
(dp1357
g1232
g1060
sg1233
(lp1358
S"'Marmalade Studio'"
p1359
ag1056
asg278
g1073
sbsS'IwGeom.h'
p1360
g252
(g1228
g254
Ntp1361
Rp1362
(dp1363
g1232
g968
sg1233
g1250
sg278
g969
sbsS'IwGeomVec4.h'
p1364
g252
(g1228
g254
Ntp1365
Rp1366
(dp1367
g1232
g968
sg1233
g1250
sg278
g987
sbsS'dir.h'
p1368
g252
(g1228
g254
Ntp1369
Rp1370
(dp1371
g1232
g1240
sg1233
(lp1372
g1242
aS'stdc headers'
p1373
aS'sys'
p1374
asg278
S'c:/marmalade/6.3/s3e/h/std/sys/dir.h'
p1375
sbsS'locale.h'
p1376
g252
(g1228
g254
Ntp1377
Rp1378
(dp1379
g1232
g1240
sg1233
g1262
sg278
S'c:/marmalade/6.3/s3e/h/std/locale.h'
p1380
sbsS'vector'
p1381
g252
(g1228
g254
Ntp1382
Rp1383
(dp1384
g1232
g1240
sg1233
g1241
sg278
S'c:/marmalade/6.3/s3e/h/std/c++/vector'
p1385
sbsS'rendering.cpp'
p1386
g252
(g1228
g254
Ntp1387
Rp1388
(dp1389
g1232
g890
sg1233
(lp1390
g884
ag886
asg278
g903
sbsS'IwManaged.h'
p1391
g252
(g1228
g254
Ntp1392
Rp1393
(dp1394
g1232
g1114
sg1233
g1269
sg278
g1194
sbsS's3eCompass.h'
p1395
g252
(g1228
g254
Ntp1396
Rp1397
(dp1398
g1232
g1240
sg1233
g1256
sg278
S'c:/marmalade/6.3/s3e/h/s3eCompass.h'
p1399
sbsS'cderror.h'
p1400
g252
(g1228
g254
Ntp1401
Rp1402
(dp1403
g1232
g844
sg1233
g1314
sg278
g849
sbsS'climits'
p1404
g252
(g1228
g254
Ntp1405
Rp1406
(dp1407
g1232
g1240
sg1233
g1241
sg278
S'c:/marmalade/6.3/s3e/h/std/c++/climits'
p1408
sbsS's3eVibra.h'
p1409
g252
(g1228
g254
Ntp1410
Rp1411
(dp1412
g1232
g1240
sg1233
g1256
sg278
S'c:/marmalade/6.3/s3e/h/s3eVibra.h'
p1413
sbsS'jversion.h'
p1414
g252
(g1228
g254
Ntp1415
Rp1416
(dp1417
g1232
g844
sg1233
g1314
sg278
g857
sbsS'fnmatch.h'
p1418
g252
(g1228
g254
Ntp1419
Rp1420
(dp1421
g1232
g1240
sg1233
g1262
sg278
S'c:/marmalade/6.3/s3e/h/std/fnmatch.h'
p1422
sbsS'IwGxState.h'
p1423
g252
(g1228
g254
Ntp1424
Rp1425
(dp1426
g1232
g1060
sg1233
g1358
sg278
g1071
sbsS's3eAudio.h'
p1427
g252
(g1228
g254
Ntp1428
Rp1429
(dp1430
g1232
g1240
sg1233
g1256
sg278
S'c:/marmalade/6.3/s3e/h/s3eAudio.h'
p1431
sbsS's3eSurface.h'
p1432
g252
(g1228
g254
Ntp1433
Rp1434
(dp1435
g1232
g1240
sg1233
g1256
sg278
S'c:/marmalade/6.3/s3e/h/s3eSurface.h'
p1436
sbsS'new'
p1437
g252
(g1228
g254
Ntp1438
Rp1439
(dp1440
g1232
g1240
sg1233
g1241
sg278
S'c:/marmalade/6.3/s3e/h/std/c++/new'
p1441
sbsS's3eWindow.h'
p1442
g252
(g1228
g254
Ntp1443
Rp1444
(dp1445
g1232
g1240
sg1233
(lp1446
g1242
aS'Extensions'
p1447
asg278
S'c:/marmalade/6.3/s3e/h/ext/s3eWindow.h'
p1448
sbsS'IwBuffer.h'
p1449
g252
(g1228
g254
Ntp1450
Rp1451
(dp1452
g1232
g1114
sg1233
g1269
sg278
g1184
sbsS's3eOSExec.h'
p1453
g252
(g1228
g254
Ntp1454
Rp1455
(dp1456
g1232
g1240
sg1233
g1446
sg278
S'c:/marmalade/6.3/s3e/h/ext/s3eOSExec.h'
p1457
sbsS'IwGxTransformSW.h'
p1458
g252
(g1228
g254
Ntp1459
Rp1460
(dp1461
g1232
g1060
sg1233
g1358
sg278
g1104
sbsS'unistd.h'
p1462
g252
(g1228
g254
Ntp1463
Rp1464
(dp1465
g1232
g1240
sg1233
g1262
sg278
S'c:/marmalade/6.3/s3e/h/std/unistd.h'
p1466
sbsS'iwgxfont.config.txt'
p1467
g252
(g1228
g254
Ntp1468
Rp1469
(dp1470
g1232
g949
sg1233
g1234
sg278
g947
sbsS'gl2platform.h'
p1471
g252
(g1228
g254
Ntp1472
Rp1473
(dp1474
g1232
g1240
sg1233
(lp1475
g1242
aS'GL'
p1476
aS'GLES 2.0'
p1477
asg278
S'c:/marmalade/6.3/s3e/h/GLES2/gl2platform.h'
p1478
sbsS'IwResManagerClass.h'
p1479
g252
(g1228
g254
Ntp1480
Rp1481
(dp1482
g1232
g1036
sg1233
(lp1483
g916
ag1032
asg278
g1042
sbsS'queue'
p1484
g252
(g1228
g254
Ntp1485
Rp1486
(dp1487
g1232
g1240
sg1233
g1241
sg278
S'c:/marmalade/6.3/s3e/h/std/c++/queue'
p1488
sbsS'time_1.h'
p1489
g252
(g1228
g254
Ntp1490
Rp1491
(dp1492
g1232
g1240
sg1233
g1372
sg278
S'c:/marmalade/6.3/s3e/h/std/sys/time.h'
p1493
sbsS'Iw2D.h'
p1494
g252
(g1228
g254
Ntp1495
Rp1496
(dp1497
g1232
g937
sg1233
g1319
sg278
g938
sbsS'IwGeomVec2.h'
p1498
g252
(g1228
g254
Ntp1499
Rp1500
(dp1501
g1232
g968
sg1233
g1250
sg278
g977
sbsS's3eDevice.h'
p1502
g252
(g1228
g254
Ntp1503
Rp1504
(dp1505
g1232
g1240
sg1233
g1256
sg278
S'c:/marmalade/6.3/s3e/h/s3eDevice.h'
p1506
sbsS'malloc.h'
p1507
g252
(g1228
g254
Ntp1508
Rp1509
(dp1510
g1232
g1240
sg1233
g1262
sg278
S'c:/marmalade/6.3/s3e/h/std/malloc.h'
p1511
sbsS'stdarg.h'
p1512
g252
(g1228
g254
Ntp1513
Rp1514
(dp1515
g1232
g1240
sg1233
g1262
sg278
S'c:/marmalade/6.3/s3e/h/std/stdarg.h'
p1516
sbsS'IwGeomCore.h'
p1517
g252
(g1228
g254
Ntp1518
Rp1519
(dp1520
g1232
g968
sg1233
g1250
sg278
g1004
sbsS'endian.h'
p1521
g252
(g1228
g254
Ntp1522
Rp1523
(dp1524
g1232
g1240
sg1233
g1262
sg278
S'c:/marmalade/6.3/s3e/h/std/endian.h'
p1525
sbsS'glob.h'
p1526
g252
(g1228
g254
Ntp1527
Rp1528
(dp1529
g1232
g1240
sg1233
g1262
sg278
S'c:/marmalade/6.3/s3e/h/std/glob.h'
p1530
sbsS'fstream'
p1531
g252
(g1228
g254
Ntp1532
Rp1533
(dp1534
g1232
g1240
sg1233
g1241
sg278
S'c:/marmalade/6.3/s3e/h/std/c++/fstream'
p1535
sbsS's3eCamera.h'
p1536
g252
(g1228
g254
Ntp1537
Rp1538
(dp1539
g1232
g1240
sg1233
g1256
sg278
S'c:/marmalade/6.3/s3e/h/s3eCamera.h'
p1540
sbsS'jconfig.h'
p1541
g252
(g1228
g254
Ntp1542
Rp1543
(dp1544
g1232
g844
sg1233
g1314
sg278
g847
sbsS'memory'
p1545
g252
(g1228
g254
Ntp1546
Rp1547
(dp1548
g1232
g1240
sg1233
g1241
sg278
S'c:/marmalade/6.3/s3e/h/std/c++/memory'
p1549
sbsS'egl.h'
p1550
g252
(g1228
g254
Ntp1551
Rp1552
(dp1553
g1232
g1240
sg1233
(lp1554
g1242
aS'GL'
p1555
aS'EGL'
p1556
asg278
S'c:/marmalade/6.3/s3e/h/EGL/egl.h'
p1557
sbsS'IwClip.inl'
p1558
g252
(g1228
g254
Ntp1559
Rp1560
(dp1561
g1232
g1060
sg1233
g1358
sg278
g1067
sbsS'IwMemManagerDL.h'
p1562
g252
(g1228
g254
Ntp1563
Rp1564
(dp1565
g1232
g1114
sg1233
g1269
sg278
g1142
sbsS'deque'
p1566
g252
(g1228
g254
Ntp1567
Rp1568
(dp1569
g1232
g1240
sg1233
g1241
sg278
S'c:/marmalade/6.3/s3e/h/std/c++/deque'
p1570
sbsS'IwString.h'
p1571
g252
(g1228
g254
Ntp1572
Rp1573
(dp1574
g1232
g1114
sg1233
g1269
sg278
g1125
sbsS'cwchar'
p1575
g252
(g1228
g254
Ntp1576
Rp1577
(dp1578
g1232
g1240
sg1233
g1241
sg278
S'c:/marmalade/6.3/s3e/h/std/c++/cwchar'
p1579
sbsS'iwutil.mkf'
p1580
g252
(g1228
g254
Ntp1581
Rp1582
(dp1583
g1232
g1141
sg1233
g1269
sg278
g1139
sbsS'csignal'
p1584
g252
(g1228
g254
Ntp1585
Rp1586
(dp1587
g1232
g1240
sg1233
g1241
sg278
S'c:/marmalade/6.3/s3e/h/std/c++/csignal'
p1588
sbsS'float.h'
p1589
g252
(g1228
g254
Ntp1590
Rp1591
(dp1592
g1232
g1240
sg1233
g1262
sg278
S'c:/marmalade/6.3/s3e/h/std/float.h'
p1593
sbsS'pthread_alloc'
p1594
g252
(g1228
g254
Ntp1595
Rp1596
(dp1597
g1232
g1240
sg1233
g1241
sg278
S'c:/marmalade/6.3/s3e/h/std/c++/pthread_alloc'
p1598
sbsS'getopt.h'
p1599
g252
(g1228
g254
Ntp1600
Rp1601
(dp1602
g1232
g1240
sg1233
g1262
sg278
S'c:/marmalade/6.3/s3e/h/std/getopt.h'
p1603
sbsS'IwOptimiseARM.h'
p1604
g252
(g1228
g254
Ntp1605
Rp1606
(dp1607
g1232
g1114
sg1233
g1269
sg278
g1112
sbsS'times.h'
p1608
g252
(g1228
g254
Ntp1609
Rp1610
(dp1611
g1232
g1240
sg1233
g1372
sg278
S'c:/marmalade/6.3/s3e/h/std/sys/times.h'
p1612
sbsS'IwGeomFSphere.h'
p1613
g252
(g1228
g254
Ntp1614
Rp1615
(dp1616
g1232
g968
sg1233
g1250
sg278
g1030
sbsS'game.h'
p1617
g252
(g1228
g254
Ntp1618
Rp1619
(dp1620
g1232
g890
sg1233
g1390
sg278
g901
sbsS'functional'
p1621
g252
(g1228
g254
Ntp1622
Rp1623
(dp1624
g1232
g1240
sg1233
g1241
sg278
S'c:/marmalade/6.3/s3e/h/std/c++/functional'
p1625
sbsS'IwTypes.h'
p1626
g252
(g1228
g254
Ntp1627
Rp1628
(dp1629
g1232
g1114
sg1233
g1269
sg278
g1168
sbsS'IwGxMetrics.h'
p1630
g252
(g1228
g254
Ntp1631
Rp1632
(dp1633
g1232
g1060
sg1233
g1358
sg278
g1058
sbsS's3eCompression.h'
p1634
g252
(g1228
g254
Ntp1635
Rp1636
(dp1637
g1232
g1240
sg1233
g1256
sg278
S'c:/marmalade/6.3/s3e/h/s3eCompression.h'
p1638
sbsS'langinfo.h'
p1639
g252
(g1228
g254
Ntp1640
Rp1641
(dp1642
g1232
g1240
sg1233
g1262
sg278
S'c:/marmalade/6.3/s3e/h/std/langinfo.h'
p1643
sbsS's3edebugHeap.h'
p1644
g252
(g1228
g254
Ntp1645
Rp1646
(dp1647
g1232
g1240
sg1233
g1446
sg278
S'c:/marmalade/6.3/s3e/h/ext/s3edebugHeap.h'
p1648
sbsS'AirplayVersion.h'
p1649
g252
(g1228
g254
Ntp1650
Rp1651
(dp1652
g1232
g1240
sg1233
g1256
sg278
S'c:/marmalade/6.3/s3e/h/AirplayVersion.h'
p1653
sbsS'gl2extimg.h'
p1654
g252
(g1228
g254
Ntp1655
Rp1656
(dp1657
g1232
g1240
sg1233
g1475
sg278
S'c:/marmalade/6.3/s3e/h/GLES2/gl2extimg.h'
p1658
sbsS'app.config.txt'
p1659
g252
(g1228
g254
Ntp1660
Rp1661
(dp1662
g1232
(dp1663
sg1233
g4
sg278
S'c:/Users/Pietro/Documents/GitHub/Patriot-Missile-Defense/data/app.config.txt'
p1664
sbsS'IwGeomSqrt.h'
p1665
g252
(g1228
g254
Ntp1666
Rp1667
(dp1668
g1232
g968
sg1233
g1250
sg278
g1016
sbsS'tiniconv_int.h'
p1669
g252
(g1228
g254
Ntp1670
Rp1671
(dp1672
g1232
g878
sg1233
(lp1673
g874
asg278
g879
sbsS'syslog.h'
p1674
g252
(g1228
g254
Ntp1675
Rp1676
(dp1677
g1232
g1240
sg1233
g1262
sg278
S'c:/marmalade/6.3/s3e/h/std/syslog.h'
p1678
sbsS'IwGxFontTypes.h'
p1679
g252
(g1228
g254
Ntp1680
Rp1681
(dp1682
g1232
g949
sg1233
g1234
sg278
g962
sbsS'IwGeomFIntersect.h'
p1683
g252
(g1228
g254
Ntp1684
Rp1685
(dp1686
g1232
g968
sg1233
g1250
sg278
g985
sbsS'hash_map'
p1687
g252
(g1228
g254
Ntp1688
Rp1689
(dp1690
g1232
g1240
sg1233
g1241
sg278
S'c:/marmalade/6.3/s3e/h/std/c++/hash_map'
p1691
sbsS's3e.mkf'
p1692
g252
(g1228
g254
Ntp1693
Rp1694
(dp1695
g1232
(dp1696
sg1233
g1256
sg278
S'c:/marmalade/6.3/s3e/s3e.mkf'
p1697
sbsS's3eOSReadString.h'
p1698
g252
(g1228
g254
Ntp1699
Rp1700
(dp1701
g1232
g1240
sg1233
g1446
sg278
S'c:/marmalade/6.3/s3e/h/ext/s3eOSReadString.h'
p1702
sbsS'map'
p1703
g252
(g1228
g254
Ntp1704
Rp1705
(dp1706
g1232
g1240
sg1233
g1241
sg278
S'c:/marmalade/6.3/s3e/h/std/c++/map'
p1707
sbsS'IwOptimiseSpeed.h'
p1708
g252
(g1228
g254
Ntp1709
Rp1710
(dp1711
g1232
g1114
sg1233
g1269
sg278
g1208
sbsS'localise.h'
p1712
g252
(g1228
g254
Ntp1713
Rp1714
(dp1715
g1232
g890
sg1233
g1390
sg278
g891
sbsS'msl_string.h'
p1716
g252
(g1228
g254
Ntp1717
Rp1718
(dp1719
g1232
g1240
sg1233
g1241
sg278
S'c:/marmalade/6.3/s3e/h/std/c++/msl_string.h'
p1720
sbsS'select.h'
p1721
g252
(g1228
g254
Ntp1722
Rp1723
(dp1724
g1232
g1240
sg1233
g1372
sg278
S'c:/marmalade/6.3/s3e/h/std/sys/select.h'
p1725
sbsS'zlib.mkf'
p1726
g252
(g1228
g254
Ntp1727
Rp1728
(dp1729
g1232
g1224
sg1233
(lp1730
g1214
asg278
g1222
sbsS'signal.h'
p1731
g252
(g1228
g254
Ntp1732
Rp1733
(dp1734
g1232
g1240
sg1233
g1262
sg278
S'c:/marmalade/6.3/s3e/h/std/signal.h'
p1735
sbsS'sigcontext.h'
p1736
g252
(g1228
g254
Ntp1737
Rp1738
(dp1739
g1232
g1240
sg1233
g1262
sg278
S'c:/marmalade/6.3/s3e/h/std/sigcontext.h'
p1740
sbsS'libpng.mkf'
p1741
g252
(g1228
g254
Ntp1742
Rp1743
(dp1744
g1232
g838
sg1233
(lp1745
g827
asg278
g836
sbsS'effects.cpp'
p1746
g252
(g1228
g254
Ntp1747
Rp1748
(dp1749
g1232
g890
sg1233
g1390
sg278
g893
sbsS's3eClipboard.h'
p1750
g252
(g1228
g254
Ntp1751
Rp1752
(dp1753
g1232
g1240
sg1233
g1256
sg278
S'c:/marmalade/6.3/s3e/h/s3eClipboard.h'
p1754
sbsS'IwGxFuncTable.h'
p1755
g252
(g1228
g254
Ntp1756
Rp1757
(dp1758
g1232
g1060
sg1233
g1358
sg278
g1096
sbsS'IwResHandlerGROUP.h'
p1759
g252
(g1228
g254
Ntp1760
Rp1761
(dp1762
g1232
g1036
sg1233
g1483
sg278
g1054
sbsS's3eDebug.h'
p1763
g252
(g1228
g254
Ntp1764
Rp1765
(dp1766
g1232
g1240
sg1233
g1256
sg278
S'c:/marmalade/6.3/s3e/h/s3eDebug.h'
p1767
sbsS'socket.h'
p1768
g252
(g1228
g254
Ntp1769
Rp1770
(dp1771
g1232
g1240
sg1233
g1372
sg278
S'c:/marmalade/6.3/s3e/h/std/sys/socket.h'
p1772
sbsS'glext.h'
p1773
g252
(g1228
g254
Ntp1774
Rp1775
(dp1776
g1232
g1240
sg1233
(lp1777
g1242
aS'GL'
p1778
aS'GLES 1.x'
p1779
asg278
S'c:/marmalade/6.3/s3e/h/GLES/glext.h'
p1780
sbsS'typeinfo.h'
p1781
g252
(g1228
g254
Ntp1782
Rp1783
(dp1784
g1232
g1240
sg1233
g1241
sg278
S'c:/marmalade/6.3/s3e/h/std/c++/typeinfo.h'
p1785
sbsS'typeinfo'
p1786
g252
(g1228
g254
Ntp1787
Rp1788
(dp1789
g1232
g1240
sg1233
g1241
sg278
S'c:/marmalade/6.3/s3e/h/std/c++/typeinfo'
p1790
sbsS'fstream.h'
p1791
g252
(g1228
g254
Ntp1792
Rp1793
(dp1794
g1232
g1240
sg1233
g1241
sg278
S'c:/marmalade/6.3/s3e/h/std/c++/fstream.h'
p1795
sbsS's3ePointer.h'
p1796
g252
(g1228
g254
Ntp1797
Rp1798
(dp1799
g1232
g1240
sg1233
g1256
sg278
S'c:/marmalade/6.3/s3e/h/s3ePointer.h'
p1800
sbsS'iw2d.mkf'
p1801
g252
(g1228
g254
Ntp1802
Rp1803
(dp1804
g1232
g934
sg1233
g1319
sg278
g932
sbsS's3eGL.h'
p1805
g252
(g1228
g254
Ntp1806
Rp1807
(dp1808
g1232
g1240
sg1233
g1256
sg278
S'c:/marmalade/6.3/s3e/h/s3eGL.h'
p1809
sbsS'IwGeomFVec2.h'
p1810
g252
(g1228
g254
Ntp1811
Rp1812
(dp1813
g1232
g968
sg1233
g1250
sg278
g1026
sbsS'IwGeomSVec4.h'
p1814
g252
(g1228
g254
Ntp1815
Rp1816
(dp1817
g1232
g968
sg1233
g1250
sg278
g1002
sbsS'resources.group'
p1818
g252
(g1228
g254
Ntp1819
Rp1820
(dp1821
g1232
g890
sg1233
(lp1822
g884
ag909
asg278
g911
sbsS'IwMatAnim.h'
p1823
g252
(g1228
g254
Ntp1824
Rp1825
(dp1826
g1232
g1060
sg1233
g1358
sg278
g1077
sbsS'IwGeomFVec4.h'
p1827
g252
(g1228
g254
Ntp1828
Rp1829
(dp1830
g1232
g968
sg1233
g1250
sg278
g998
sbsS'IwGx.h'
p1831
g252
(g1228
g254
Ntp1832
Rp1833
(dp1834
g1232
g1060
sg1233
g1358
sg278
g1063
sbsS'valarray'
p1835
g252
(g1228
g254
Ntp1836
Rp1837
(dp1838
g1232
g1240
sg1233
g1241
sg278
S'c:/marmalade/6.3/s3e/h/std/c++/valarray'
p1839
sbsS'iosfwd'
p1840
g252
(g1228
g254
Ntp1841
Rp1842
(dp1843
g1232
g1240
sg1233
g1241
sg278
S'c:/marmalade/6.3/s3e/h/std/c++/iosfwd'
p1844
sbsS'gl2.h'
p1845
g252
(g1228
g254
Ntp1846
Rp1847
(dp1848
g1232
g1240
sg1233
g1475
sg278
S'c:/marmalade/6.3/s3e/h/GLES2/gl2.h'
p1849
sbsS'IwManagedList.h'
p1850
g252
(g1228
g254
Ntp1851
Rp1852
(dp1853
g1232
g1114
sg1233
g1269
sg278
g1196
sbsS'stdiostream.h'
p1854
g252
(g1228
g254
Ntp1855
Rp1856
(dp1857
g1232
g1240
sg1233
g1241
sg278
S'c:/marmalade/6.3/s3e/h/std/c++/stdiostream.h'
p1858
sbsS'mem.h'
p1859
g252
(g1228
g254
Ntp1860
Rp1861
(dp1862
g1232
g1240
sg1233
g1241
sg278
S'c:/marmalade/6.3/s3e/h/std/c++/mem.h'
p1863
sbsS'jerror.h'
p1864
g252
(g1228
g254
Ntp1865
Rp1866
(dp1867
g1232
g844
sg1233
g1314
sg278
g855
sbsS'zconf.h'
p1868
g252
(g1228
g254
Ntp1869
Rp1870
(dp1871
g1232
g1219
sg1233
(lp1872
g1214
ag829
asg278
g1220
sbsS's3e.config.txt'
p1873
g252
(g1228
g254
Ntp1874
Rp1875
(dp1876
g1232
g1240
sg1233
g1256
sg278
S'c:/marmalade/6.3/s3e/s3e.config.txt'
p1877
sbsS'numeric'
p1878
g252
(g1228
g254
Ntp1879
Rp1880
(dp1881
g1232
g1240
sg1233
g1241
sg278
S'c:/marmalade/6.3/s3e/h/std/c++/numeric'
p1882
sbsS'utime.h'
p1883
g252
(g1228
g254
Ntp1884
Rp1885
(dp1886
g1232
g1240
sg1233
g1262
sg278
S'c:/marmalade/6.3/s3e/h/std/utime.h'
p1887
sbsS'jdhuff.h'
p1888
g252
(g1228
g254
Ntp1889
Rp1890
(dp1891
g1232
g844
sg1233
g1314
sg278
g867
sbsS'IwGxStream.h'
p1892
g252
(g1228
g254
Ntp1893
Rp1894
(dp1895
g1232
g1060
sg1233
g1358
sg278
g1098
sbsS'IwImage.h'
p1896
g252
(g1228
g254
Ntp1897
Rp1898
(dp1899
g1232
g1114
sg1233
g1269
sg278
g1202
sbsS's3eImagePicker.h'
p1900
g252
(g1228
g254
Ntp1901
Rp1902
(dp1903
g1232
g1240
sg1233
g1446
sg278
S'c:/marmalade/6.3/s3e/h/ext/s3eImagePicker.h'
p1904
sbsS'IwTextParserITX.h'
p1905
g252
(g1228
g254
Ntp1906
Rp1907
(dp1908
g1232
g1114
sg1233
g1269
sg278
g1119
sbsS'stdlib.h'
p1909
g252
(g1228
g254
Ntp1910
Rp1911
(dp1912
g1232
g1240
sg1233
g1262
sg278
S'c:/marmalade/6.3/s3e/h/std/stdlib.h'
p1913
sbsS'IwCopyingPtr.h'
p1914
g252
(g1228
g254
Ntp1915
Rp1916
(dp1917
g1232
g1114
sg1233
g1269
sg278
g1162
sbsS'iostream'
p1918
g252
(g1228
g254
Ntp1919
Rp1920
(dp1921
g1232
g1240
sg1233
g1241
sg278
S'c:/marmalade/6.3/s3e/h/std/c++/iostream'
p1922
sbsS'png.h'
p1923
g252
(g1228
g254
Ntp1924
Rp1925
(dp1926
g1232
g833
sg1233
(lp1927
g827
ag829
asg278
g831
sbsS'stddef.h'
p1928
g252
(g1228
g254
Ntp1929
Rp1930
(dp1931
g1232
g1240
sg1233
g1262
sg278
S'c:/marmalade/6.3/s3e/h/std/stddef.h'
p1932
sbsS'setjmp_win32.h'
p1933
g252
(g1228
g254
Ntp1934
Rp1935
(dp1936
g1232
g1240
sg1233
g1262
sg278
S'c:/marmalade/6.3/s3e/h/std/setjmp_win32.h'
p1937
sbsS'IwGxPrint.h'
p1938
g252
(g1228
g254
Ntp1939
Rp1940
(dp1941
g1232
g1060
sg1233
g1358
sg278
g1102
sbsS'IwGeomSVec2.h'
p1942
g252
(g1228
g254
Ntp1943
Rp1944
(dp1945
g1232
g968
sg1233
g1250
sg278
g1020
sbsS'streambuf.h'
p1946
g252
(g1228
g254
Ntp1947
Rp1948
(dp1949
g1232
g1240
sg1233
g1241
sg278
S'c:/marmalade/6.3/s3e/h/std/c++/streambuf.h'
p1950
sbsS'IwGeomFPlane.h'
p1951
g252
(g1228
g254
Ntp1952
Rp1953
(dp1954
g1232
g968
sg1233
g1250
sg278
g1028
sbsS'wchar.h'
p1955
g252
(g1228
g254
Ntp1956
Rp1957
(dp1958
g1232
g1240
sg1233
g1262
sg278
S'c:/marmalade/6.3/s3e/h/std/wchar.h'
p1959
sbsS's3eCameraCapture.h'
p1960
g252
(g1228
g254
Ntp1961
Rp1962
(dp1963
g1232
g1240
sg1233
g1446
sg278
S'c:/marmalade/6.3/s3e/h/ext/s3eCameraCapture.h'
p1964
sbsS'eglext.h'
p1965
g252
(g1228
g254
Ntp1966
Rp1967
(dp1968
g1232
g1240
sg1233
g1554
sg278
S'c:/marmalade/6.3/s3e/h/EGL/eglext.h'
p1969
sbsS'IwResHandlerImage.h'
p1970
g252
(g1228
g254
Ntp1971
Rp1972
(dp1973
g1232
g1036
sg1233
g1483
sg278
g1040
sbsS'strstream.h'
p1974
g252
(g1228
g254
Ntp1975
Rp1976
(dp1977
g1232
g1240
sg1233
g1241
sg278
S'c:/marmalade/6.3/s3e/h/std/c++/strstream.h'
p1978
sbsS'tiniconv.h'
p1979
g252
(g1228
g254
Ntp1980
Rp1981
(dp1982
g1232
g878
sg1233
g1673
sg278
g876
sbsS'IwGLExt.h'
p1983
g252
(g1228
g254
Ntp1984
Rp1985
(dp1986
g1232
g922
sg1233
g1339
sg278
g928
sbsS'app.icf'
p1987
g252
(g1228
g254
Ntp1988
Rp1989
(dp1990
g1232
(dp1991
sg1233
g4
sg278
S'c:/Users/Pietro/Documents/GitHub/Patriot-Missile-Defense/data/app.icf'
p1992
sbsS'IwClassFactory.h'
p1993
g252
(g1228
g254
Ntp1994
Rp1995
(dp1996
g1232
g1114
sg1233
g1269
sg278
g1180
sbsS'file.h'
p1997
g252
(g1228
g254
Ntp1998
Rp1999
(dp2000
g1232
g1240
sg1233
g1372
sg278
S'c:/marmalade/6.3/s3e/h/std/sys/file.h'
p2001
sbsS'cstring'
p2002
g252
(g1228
g254
Ntp2003
Rp2004
(dp2005
g1232
g1240
sg1233
g1241
sg278
S'c:/marmalade/6.3/s3e/h/std/c++/cstring'
p2006
sbsS'iwutil.config.txt'
p2007
g252
(g1228
g254
Ntp2008
Rp2009
(dp2010
g1232
g1114
sg1233
g1269
sg278
g1150
sbsS's3eSMS.h'
p2011
g252
(g1228
g254
Ntp2012
Rp2013
(dp2014
g1232
g1240
sg1233
g1446
sg278
S'c:/marmalade/6.3/s3e/h/ext/s3eSMS.h'
p2015
sbsS'limits.h'
p2016
g252
(g1228
g254
Ntp2017
Rp2018
(dp2019
g1232
g1240
sg1233
g1262
sg278
S'c:/marmalade/6.3/s3e/h/std/limits.h'
p2020
sbsS'iwgl.config.txt'
p2021
g252
(g1228
g254
Ntp2022
Rp2023
(dp2024
g1232
g922
sg1233
g1339
sg278
g926
sbsS'iwgx_public.defines.txt'
p2025
g252
(g1228
g254
Ntp2026
Rp2027
(dp2028
g1232
g1060
sg1233
g1358
sg278
g1069
sbsS'IwMaterial.h'
p2029
g252
(g1228
g254
Ntp2030
Rp2031
(dp2032
g1232
g1060
sg1233
g1358
sg278
g1075
sbsS'IwGxSurface.h'
p2033
g252
(g1228
g254
Ntp2034
Rp2035
(dp2036
g1232
g1060
sg1233
g1358
sg278
g1079
sbsS's3eSocket.h'
p2037
g252
(g1228
g254
Ntp2038
Rp2039
(dp2040
g1232
g1240
sg1233
g1256
sg278
S'c:/marmalade/6.3/s3e/h/s3eSocket.h'
p2041
sbsS'IwAutoFile.h'
p2042
g252
(g1228
g254
Ntp2043
Rp2044
(dp2045
g1232
g1114
sg1233
g1269
sg278
g1200
sbsS'ipc.h'
p2046
g252
(g1228
g254
Ntp2047
Rp2048
(dp2049
g1232
g1240
sg1233
g1372
sg278
S'c:/marmalade/6.3/s3e/h/std/sys/ipc.h'
p2050
sbsS'poll_1.h'
p2051
g252
(g1228
g254
Ntp2052
Rp2053
(dp2054
g1232
g1240
sg1233
g1372
sg278
S'c:/marmalade/6.3/s3e/h/std/sys/poll.h'
p2055
sbsS's3eThread.h'
p2056
g252
(g1228
g254
Ntp2057
Rp2058
(dp2059
g1232
g1240
sg1233
g1256
sg278
S'c:/marmalade/6.3/s3e/h/s3eThread.h'
p2060
sbsS'ucontext.h'
p2061
g252
(g1228
g254
Ntp2062
Rp2063
(dp2064
g1232
g1240
sg1233
g1262
sg278
S'c:/marmalade/6.3/s3e/h/std/ucontext.h'
p2065
sbsS'time.h'
p2066
g252
(g1228
g254
Ntp2067
Rp2068
(dp2069
g1232
g1240
sg1233
g1262
sg278
S'c:/marmalade/6.3/s3e/h/std/time.h'
p2070
sbsS'jchuff.h'
p2071
g252
(g1228
g254
Ntp2072
Rp2073
(dp2074
g1232
g844
sg1233
g1314
sg278
g861
sbsS's3eSoundRecord.h'
p2075
g252
(g1228
g254
Ntp2076
Rp2077
(dp2078
g1232
g1240
sg1233
g1256
sg278
S'c:/marmalade/6.3/s3e/h/s3eSoundRecord.h'
p2079
sbsS'IwFibre.h'
p2080
g252
(g1228
g254
Ntp2081
Rp2082
(dp2083
g1232
g1114
sg1233
g1269
sg278
g1117
sbsS's3eVersion.h'
p2084
g252
(g1228
g254
Ntp2085
Rp2086
(dp2087
g1232
g1240
sg1233
g1256
sg278
S'c:/marmalade/6.3/s3e/h/s3eVersion.h'
p2088
sbsS'IwGxFontGlyph.h'
p2089
g252
(g1228
g254
Ntp2090
Rp2091
(dp2092
g1232
g949
sg1233
g1234
sg278
g956
sbsS's3eTypes.h'
p2093
g252
(g1228
g254
Ntp2094
Rp2095
(dp2096
g1232
g1240
sg1233
g1256
sg278
S'c:/marmalade/6.3/s3e/h/s3eTypes.h'
p2097
sbsS'signal_2.h'
p2098
g252
(g1228
g254
Ntp2099
Rp2100
(dp2101
g1232
g1240
sg1233
g1241
sg278
S'c:/marmalade/6.3/s3e/h/std/c++/signal.h'
p2102
sbsS'termios.h'
p2103
g252
(g1228
g254
Ntp2104
Rp2105
(dp2106
g1232
g1240
sg1233
g1262
sg278
S'c:/marmalade/6.3/s3e/h/std/termios.h'
p2107
sbsS'slist'
p2108
g252
(g1228
g254
Ntp2109
Rp2110
(dp2111
g1232
g1240
sg1233
g1241
sg278
S'c:/marmalade/6.3/s3e/h/std/c++/slist'
p2112
sbsS'cstdlib'
p2113
g252
(g1228
g254
Ntp2114
Rp2115
(dp2116
g1232
g1240
sg1233
g1241
sg278
S'c:/marmalade/6.3/s3e/h/std/c++/cstdlib'
p2117
sbsS's3eLocation.h'
p2118
g252
(g1228
g254
Ntp2119
Rp2120
(dp2121
g1232
g1240
sg1233
g1256
sg278
S'c:/marmalade/6.3/s3e/h/s3eLocation.h'
p2122
sbsS'IwMemBucketHelpers.h'
p2123
g252
(g1228
g254
Ntp2124
Rp2125
(dp2126
g1232
g1114
sg1233
g1269
sg278
g1176
sbsS's3eHash.h'
p2127
g252
(g1228
g254
Ntp2128
Rp2129
(dp2130
g1232
g1240
sg1233
g1256
sg278
S'c:/marmalade/6.3/s3e/h/s3eHash.h'
p2131
sbsS'IwGeomFMat.h'
p2132
g252
(g1228
g254
Ntp2133
Rp2134
(dp2135
g1232
g968
sg1233
g1250
sg278
g1012
sbsS'type_traits.h'
p2136
g252
(g1228
g254
Ntp2137
Rp2138
(dp2139
g1232
g1240
sg1233
g1241
sg278
S'c:/marmalade/6.3/s3e/h/std/c++/type_traits.h'
p2140
sbsS'IwMenu.h'
p2141
g252
(g1228
g254
Ntp2142
Rp2143
(dp2144
g1232
g1114
sg1233
g1269
sg278
g1182
sbsS'IwResHandlerITX.h'
p2145
g252
(g1228
g254
Ntp2146
Rp2147
(dp2148
g1232
g1036
sg1233
g1483
sg278
g1046
sbsS'IwArray.h'
p2149
g252
(g1228
g254
Ntp2150
Rp2151
(dp2152
g1232
g1114
sg1233
g1269
sg278
g1129
sbsS'IwUTF8.h'
p2153
g252
(g1228
g254
Ntp2154
Rp2155
(dp2156
g1232
g1114
sg1233
g1269
sg278
g1174
sbsS'math_rvct.h'
p2157
g252
(g1228
g254
Ntp2158
Rp2159
(dp2160
g1232
g1240
sg1233
g1262
sg278
S'c:/marmalade/6.3/s3e/h/std/math_rvct.h'
p2161
sbsS'IwUtil.h'
p2162
g252
(g1228
g254
Ntp2163
Rp2164
(dp2165
g1232
g1114
sg1233
g1269
sg278
g1148
sbsS'IwGeomVec3.h'
p2166
g252
(g1228
g254
Ntp2167
Rp2168
(dp2169
g1232
g968
sg1233
g1250
sg278
g973
sbsS'wctype.h'
p2170
g252
(g1228
g254
Ntp2171
Rp2172
(dp2173
g1232
g1240
sg1233
g1262
sg278
S'c:/marmalade/6.3/s3e/h/std/wctype.h'
p2174
sbsS'cstddef'
p2175
g252
(g1228
g254
Ntp2176
Rp2177
(dp2178
g1232
g1240
sg1233
g1241
sg278
S'c:/marmalade/6.3/s3e/h/std/c++/cstddef'
p2179
sbsS'assert.h'
p2180
g252
(g1228
g254
Ntp2181
Rp2182
(dp2183
g1232
g1240
sg1233
g1262
sg278
S'c:/marmalade/6.3/s3e/h/std/assert.h'
p2184
sbsS'mman.h'
p2185
g252
(g1228
g254
Ntp2186
Rp2187
(dp2188
g1232
g1240
sg1233
g1372
sg278
S'c:/marmalade/6.3/s3e/h/std/sys/mman.h'
p2189
sbsS'IwRandom.h'
p2190
g252
(g1228
g254
Ntp2191
Rp2192
(dp2193
g1232
g1114
sg1233
g1269
sg278
g1178
sbsS'libgen.h'
p2194
g252
(g1228
g254
Ntp2195
Rp2196
(dp2197
g1232
g1240
sg1233
g1262
sg278
S'c:/marmalade/6.3/s3e/h/std/libgen.h'
p2198
sbsS'utsname.h'
p2199
g252
(g1228
g254
Ntp2200
Rp2201
(dp2202
g1232
g1240
sg1233
g1372
sg278
S'c:/marmalade/6.3/s3e/h/std/sys/utsname.h'
p2203
sbsS'wait.h'
p2204
g252
(g1228
g254
Ntp2205
Rp2206
(dp2207
g1232
g1240
sg1233
g1372
sg278
S'c:/marmalade/6.3/s3e/h/std/sys/wait.h'
p2208
sbsS'param.h'
p2209
g252
(g1228
g254
Ntp2210
Rp2211
(dp2212
g1232
g1240
sg1233
g1372
sg278
S'c:/marmalade/6.3/s3e/h/std/sys/param.h'
p2213
sbsS'effects.h'
p2214
g252
(g1228
g254
Ntp2215
Rp2216
(dp2217
g1232
g890
sg1233
g1390
sg278
g905
sbsS'IwDivide.h'
p2218
g252
(g1228
g254
Ntp2219
Rp2220
(dp2221
g1232
g1114
sg1233
g1269
sg278
g1133
sbsS'IwResManager.h'
p2222
g252
(g1228
g254
Ntp2223
Rp2224
(dp2225
g1232
g1036
sg1233
g1483
sg278
g1052
sbsS'ostream'
p2226
g252
(g1228
g254
Ntp2227
Rp2228
(dp2229
g1232
g1240
sg1233
g1241
sg278
S'c:/marmalade/6.3/s3e/h/std/c++/ostream'
p2230
sbsS'cwctype'
p2231
g252
(g1228
g254
Ntp2232
Rp2233
(dp2234
g1232
g1240
sg1233
g1241
sg278
S'c:/marmalade/6.3/s3e/h/std/c++/cwctype'
p2235
sbsS'set'
p2236
g252
(g1228
g254
Ntp2237
Rp2238
(dp2239
g1232
g1240
sg1233
g1241
sg278
S'c:/marmalade/6.3/s3e/h/std/c++/set'
p2240
sbsS'IwGeomSQuat.h'
p2241
g252
(g1228
g254
Ntp2242
Rp2243
(dp2244
g1232
g968
sg1233
g1250
sg278
g981
sbsS'locale'
p2245
g252
(g1228
g254
Ntp2246
Rp2247
(dp2248
g1232
g1240
sg1233
g1241
sg278
S'c:/marmalade/6.3/s3e/h/std/c++/locale'
p2249
sbsS'cstdio'
p2250
g252
(g1228
g254
Ntp2251
Rp2252
(dp2253
g1232
g1240
sg1233
g1241
sg278
S'c:/marmalade/6.3/s3e/h/std/c++/cstdio'
p2254
sbsS'cdjpeg.h'
p2255
g252
(g1228
g254
Ntp2256
Rp2257
(dp2258
g1232
g844
sg1233
g1314
sg278
g859
sbsS'IwList.h'
p2259
g252
(g1228
g254
Ntp2260
Rp2261
(dp2262
g1232
g1114
sg1233
g1269
sg278
g1172
sbsS'inttypes.h'
p2263
g252
(g1228
g254
Ntp2264
Rp2265
(dp2266
g1232
g1240
sg1233
g1262
sg278
S'c:/marmalade/6.3/s3e/h/std/inttypes.h'
p2267
sbsS'dirent.h'
p2268
g252
(g1228
g254
Ntp2269
Rp2270
(dp2271
g1232
g1240
sg1233
g1262
sg278
S'c:/marmalade/6.3/s3e/h/std/dirent.h'
p2272
sbsS'IwFColour.h'
p2273
g252
(g1228
g254
Ntp2274
Rp2275
(dp2276
g1232
g1060
sg1233
g1358
sg278
g1085
sbsS'transupp.h'
p2277
g252
(g1228
g254
Ntp2278
Rp2279
(dp2280
g1232
g844
sg1233
g1314
sg278
g851
sbsS'IwMath.h'
p2281
g252
(g1228
g254
Ntp2282
Rp2283
(dp2284
g1232
g1114
sg1233
g1269
sg278
g1204
sbsS'IwGeomQuat.h'
p2285
g252
(g1228
g254
Ntp2286
Rp2287
(dp2288
g1232
g968
sg1233
g1250
sg278
g966
sbsS'glplatform.h'
p2289
g252
(g1228
g254
Ntp2290
Rp2291
(dp2292
g1232
g1240
sg1233
g1777
sg278
S'c:/marmalade/6.3/s3e/h/GLES/glplatform.h'
p2293
sbsS'bitset'
p2294
g252
(g1228
g254
Ntp2295
Rp2296
(dp2297
g1232
g1240
sg1233
g1241
sg278
S'c:/marmalade/6.3/s3e/h/std/c++/bitset'
p2298
sbsS'alloca.h'
p2299
g252
(g1228
g254
Ntp2300
Rp2301
(dp2302
g1232
g1240
sg1233
g1262
sg278
S'c:/marmalade/6.3/s3e/h/std/alloca.h'
p2303
sbsS'IwResHandler.h'
p2304
g252
(g1228
g254
Ntp2305
Rp2306
(dp2307
g1232
g1036
sg1233
g1483
sg278
g1044
sbsS'IwResHandlerMTL.h'
p2308
g252
(g1228
g254
Ntp2309
Rp2310
(dp2311
g1232
g1060
sg1233
g1358
sg278
g1081
sbsS'IwRuntime.h'
p2312
g252
(g1228
g254
Ntp2313
Rp2314
(dp2315
g1232
g1114
sg1233
g1269
sg278
g1131
sbsS'limits'
p2316
g252
(g1228
g254
Ntp2317
Rp2318
(dp2319
g1232
g1240
sg1233
g1241
sg278
S'c:/marmalade/6.3/s3e/h/std/c++/limits'
p2320
sbsS'IwGeomBBox.h'
p2321
g252
(g1228
g254
Ntp2322
Rp2323
(dp2324
g1232
g968
sg1233
g1250
sg278
g1018
sbsS's3eContacts.h'
p2325
g252
(g1228
g254
Ntp2326
Rp2327
(dp2328
g1232
g1240
sg1233
g1256
sg278
S'c:/marmalade/6.3/s3e/h/s3eContacts.h'
p2329
sbsS's3eLicense.h'
p2330
g252
(g1228
g254
Ntp2331
Rp2332
(dp2333
g1232
g1240
sg1233
g1256
sg278
S'c:/marmalade/6.3/s3e/h/s3eLicense.h'
p2334
sbsS'iwgx.config.txt'
p2335
g252
(g1228
g254
Ntp2336
Rp2337
(dp2338
g1232
g1060
sg1233
g1358
sg278
g1061
sbsS'IwTextParser.h'
p2339
g252
(g1228
g254
Ntp2340
Rp2341
(dp2342
g1232
g1114
sg1233
g1269
sg278
g1210
sbsS's3eTimer.h'
p2343
g252
(g1228
g254
Ntp2344
Rp2345
(dp2346
g1232
g1240
sg1233
g1256
sg278
S'c:/marmalade/6.3/s3e/h/s3eTimer.h'
p2347
sbsS'IwGeomVec.h'
p2348
g252
(g1228
g254
Ntp2349
Rp2350
(dp2351
g1232
g968
sg1233
g1250
sg278
g1024
sbsS'IwSerialise.h'
p2352
g252
(g1228
g254
Ntp2353
Rp2354
(dp2355
g1232
g1114
sg1233
g1269
sg278
g1152
sbsS'cstdarg'
p2356
g252
(g1228
g254
Ntp2357
Rp2358
(dp2359
g1232
g1240
sg1233
g1241
sg278
S'c:/marmalade/6.3/s3e/h/std/c++/cstdarg'
p2360
sbsS'gl2ext.h'
p2361
g252
(g1228
g254
Ntp2362
Rp2363
(dp2364
g1232
g1240
sg1233
g1475
sg278
S'c:/marmalade/6.3/s3e/h/GLES2/gl2ext.h'
p2365
sbsS'IwChar.h'
p2366
g252
(g1228
g254
Ntp2367
Rp2368
(dp2369
g1232
g1114
sg1233
g1269
sg278
g1146
sbsS's3eSound.h'
p2370
g252
(g1228
g254
Ntp2371
Rp2372
(dp2373
g1232
g1240
sg1233
g1256
sg278
S'c:/marmalade/6.3/s3e/h/s3eSound.h'
p2374
sbsS'IwOptimiseThumb.h'
p2375
g252
(g1228
g254
Ntp2376
Rp2377
(dp2378
g1232
g1114
sg1233
g1269
sg278
g1158
sbsS'exception.h'
p2379
g252
(g1228
g254
Ntp2380
Rp2381
(dp2382
g1232
g1240
sg1233
g1241
sg278
S'c:/marmalade/6.3/s3e/h/std/c++/exception.h'
p2383
sbsS'iwgeom.config.txt'
p2384
g252
(g1228
g254
Ntp2385
Rp2386
(dp2387
g1232
g968
sg1233
g1250
sg278
g983
sbsS'iwgx.mkf'
p2388
g252
(g1228
g254
Ntp2389
Rp2390
(dp2391
g1232
g1095
sg1233
g1358
sg278
g1093
sbsS'gl.h'
p2392
g252
(g1228
g254
Ntp2393
Rp2394
(dp2395
g1232
g1240
sg1233
g1777
sg278
S'c:/marmalade/6.3/s3e/h/GLES/gl.h'
p2396
sbsS'zlib.h'
p2397
g252
(g1228
g254
Ntp2398
Rp2399
(dp2400
g1232
g1219
sg1233
g1872
sg278
g1217
sbsS'poll.h'
p2401
g252
(g1228
g254
Ntp2402
Rp2403
(dp2404
g1232
g1240
sg1233
g1262
sg278
S'c:/marmalade/6.3/s3e/h/std/poll.h'
p2405
sbsS'iwgl.mkf'
p2406
g252
(g1228
g254
Ntp2407
Rp2408
(dp2409
g1232
g925
sg1233
g1339
sg278
g923
sbsS'IwColour.h'
p2410
g252
(g1228
g254
Ntp2411
Rp2412
(dp2413
g1232
g1060
sg1233
g1358
sg278
g1087
sbsS's3eLibrary.h'
p2414
g252
(g1228
g254
Ntp2415
Rp2416
(dp2417
g1232
g1240
sg1233
g1446
sg278
S'c:/marmalade/6.3/s3e/h/ext/s3eLibrary.h'
p2418
sbsS'types.h'
p2419
g252
(g1228
g254
Ntp2420
Rp2421
(dp2422
g1232
g1240
sg1233
g1372
sg278
S'c:/marmalade/6.3/s3e/h/std/sys/types.h'
p2423
sbsS'ifaddrs.h'
p2424
g252
(g1228
g254
Ntp2425
Rp2426
(dp2427
g1232
g1240
sg1233
g1262
sg278
S'c:/marmalade/6.3/s3e/h/std/ifaddrs.h'
p2428
sbsS'strstream'
p2429
g252
(g1228
g254
Ntp2430
Rp2431
(dp2432
g1232
g1240
sg1233
g1241
sg278
S'c:/marmalade/6.3/s3e/h/std/c++/strstream'
p2433
sbsS'exception'
p2434
g252
(g1228
g254
Ntp2435
Rp2436
(dp2437
g1232
g1240
sg1233
g1241
sg278
S'c:/marmalade/6.3/s3e/h/std/c++/exception'
p2438
sbsS'rlocks.h'
p2439
g252
(g1228
g254
Ntp2440
Rp2441
(dp2442
g1232
g1240
sg1233
g1241
sg278
S'c:/marmalade/6.3/s3e/h/std/c++/rlocks.h'
p2443
sbsS'ioctl.h'
p2444
g252
(g1228
g254
Ntp2445
Rp2446
(dp2447
g1232
g1240
sg1233
g1372
sg278
S'c:/marmalade/6.3/s3e/h/std/sys/ioctl.h'
p2448
sbsS'rope'
p2449
g252
(g1228
g254
Ntp2450
Rp2451
(dp2452
g1232
g1240
sg1233
g1241
sg278
S'c:/marmalade/6.3/s3e/h/std/c++/rope'
p2453
sbsS'jinclude.h'
p2454
g252
(g1228
g254
Ntp2455
Rp2456
(dp2457
g1232
g844
sg1233
g1314
sg278
g845
sbsS'IwEvent.h'
p2458
g252
(g1228
g254
Ntp2459
Rp2460
(dp2461
g1232
g1114
sg1233
g1269
sg278
g1160
sbsS'IwOptimiseSize.h'
p2462
g252
(g1228
g254
Ntp2463
Rp2464
(dp2465
g1232
g1114
sg1233
g1269
sg278
g1127
sbsS'iwgxfont_public.defines.txt'
p2466
g252
(g1228
g254
Ntp2467
Rp2468
(dp2469
g1232
g949
sg1233
g1234
sg278
g954
sbsS'iconv.h'
p2470
g252
(g1228
g254
Ntp2471
Rp2472
(dp2473
g1232
g1240
sg1233
g1262
sg278
S'c:/marmalade/6.3/s3e/h/std/iconv.h'
p2474
sbsS'sendfile.h'
p2475
g252
(g1228
g254
Ntp2476
Rp2477
(dp2478
g1232
g1240
sg1233
g1372
sg278
S'c:/marmalade/6.3/s3e/h/std/sys/sendfile.h'
p2479
sbsS'IwGeomSphere.h'
p2480
g252
(g1228
g254
Ntp2481
Rp2482
(dp2483
g1232
g968
sg1233
g1250
sg278
g971
sbsS'tiniconv.mkf'
p2484
g252
(g1228
g254
Ntp2485
Rp2486
(dp2487
g1232
g883
sg1233
g1673
sg278
g881
sbsS'jdct.h'
p2488
g252
(g1228
g254
Ntp2489
Rp2490
(dp2491
g1232
g844
sg1233
g1314
sg278
g863
sbsS'cctype'
p2492
g252
(g1228
g254
Ntp2493
Rp2494
(dp2495
g1232
g1240
sg1233
g1241
sg278
S'c:/marmalade/6.3/s3e/h/std/c++/cctype'
p2496
sbsS's3eConfig.h'
p2497
g252
(g1228
g254
Ntp2498
Rp2499
(dp2500
g1232
g1240
sg1233
g1256
sg278
S'c:/marmalade/6.3/s3e/h/s3eConfig.h'
p2501
sbsS'IwHashString.h'
p2502
g252
(g1228
g254
Ntp2503
Rp2504
(dp2505
g1232
g1114
sg1233
g1269
sg278
g1188
sbsS'stat.h'
p2506
g252
(g1228
g254
Ntp2507
Rp2508
(dp2509
g1232
g1240
sg1233
g1372
sg278
S'c:/marmalade/6.3/s3e/h/std/sys/stat.h'
p2510
sbsS'byteswap.h'
p2511
g252
(g1228
g254
Ntp2512
Rp2513
(dp2514
g1232
g1240
sg1233
g1262
sg278
S'c:/marmalade/6.3/s3e/h/std/byteswap.h'
p2515
sbsS'iwresmanager.mkf'
p2516
g252
(g1228
g254
Ntp2517
Rp2518
(dp2519
g1232
g1039
sg1233
g1483
sg278
g1037
sbsS'IwUtilInitTerm.h'
p2520
g252
(g1228
g254
Ntp2521
Rp2522
(dp2523
g1232
g1114
sg1233
g1269
sg278
g1137
sbsS'titlescreen.h'
p2524
g252
(g1228
g254
Ntp2525
Rp2526
(dp2527
g1232
g890
sg1233
g1390
sg278
g895
sbsS'pthread_1.h'
p2528
g252
(g1228
g254
Ntp2529
Rp2530
(dp2531
g1232
g1240
sg1233
g1241
sg278
S'c:/marmalade/6.3/s3e/h/std/c++/pthread.h'
p2532
sbsS'IwMemBucket.h'
p2533
g252
(g1228
g254
Ntp2534
Rp2535
(dp2536
g1232
g1114
sg1233
g1269
sg278
g1166
sbsS'complex'
p2537
g252
(g1228
g254
Ntp2538
Rp2539
(dp2540
g1232
g1240
sg1233
g1241
sg278
S'c:/marmalade/6.3/s3e/h/std/c++/complex'
p2541
sbsS'game.cpp'
p2542
g252
(g1228
g254
Ntp2543
Rp2544
(dp2545
g1232
g890
sg1233
g1390
sg278
g888
sbsS's3e.icf'
p2546
g252
(g1228
g254
Ntp2547
Rp2548
(dp2549
g1232
g1240
sg1233
g1256
sg278
S'c:/marmalade/6.3/s3e/s3e.icf'
p2550
sbsS'IwVariableBitField.h'
p2551
g252
(g1228
g254
Ntp2552
Rp2553
(dp2554
g1232
g1114
sg1233
g1269
sg278
g1156
sbsS'sem.h'
p2555
g252
(g1228
g254
Ntp2556
Rp2557
(dp2558
g1232
g1240
sg1233
g1372
sg278
S'c:/marmalade/6.3/s3e/h/std/sys/sem.h'
p2559
sbsS'IwGxFontState.h'
p2560
g252
(g1228
g254
Ntp2561
Rp2562
(dp2563
g1232
g949
sg1233
g1234
sg278
g952
sbsS'stdio.h'
p2564
g252
(g1228
g254
Ntp2565
Rp2566
(dp2567
g1232
g1240
sg1233
g1262
sg278
S'c:/marmalade/6.3/s3e/h/std/stdio.h'
p2568
sbsS'jmemsys.h'
p2569
g252
(g1228
g254
Ntp2570
Rp2571
(dp2572
g1232
g844
sg1233
g1314
sg278
g842
sbsS'ios'
p2573
g252
(g1228
g254
Ntp2574
Rp2575
(dp2576
g1232
g1240
sg1233
g1241
sg278
S'c:/marmalade/6.3/s3e/h/std/c++/ios'
p2577
sbsS'stack'
p2578
g252
(g1228
g254
Ntp2579
Rp2580
(dp2581
g1232
g1240
sg1233
g1241
sg278
S'c:/marmalade/6.3/s3e/h/std/c++/stack'
p2582
sbsS'new.h'
p2583
g252
(g1228
g254
Ntp2584
Rp2585
(dp2586
g1232
g1240
sg1233
g1241
sg278
S'c:/marmalade/6.3/s3e/h/std/c++/new.h'
p2587
sbsS's3eEMail.h'
p2588
g252
(g1228
g254
Ntp2589
Rp2590
(dp2591
g1232
g1240
sg1233
g1446
sg278
S'c:/marmalade/6.3/s3e/h/ext/s3eEMail.h'
p2592
sbsS's3eVideo.h'
p2593
g252
(g1228
g254
Ntp2594
Rp2595
(dp2596
g1232
g1240
sg1233
g1256
sg278
S'c:/marmalade/6.3/s3e/h/s3eVideo.h'
p2597
sbsS'IwFile.h'
p2598
g252
(g1228
g254
Ntp2599
Rp2600
(dp2601
g1232
g1114
sg1233
g1269
sg278
g1123
sbsS'pwd.h'
p2602
g252
(g1228
g254
Ntp2603
Rp2604
(dp2605
g1232
g1240
sg1233
g1262
sg278
S'c:/marmalade/6.3/s3e/h/std/pwd.h'
p2606
sbsS'IwClip.h'
p2607
g252
(g1228
g254
Ntp2608
Rp2609
(dp2610
g1232
g1060
sg1233
g1358
sg278
g1100
sbsS'iwresmanager.config.txt'
p2611
g252
(g1228
g254
Ntp2612
Rp2613
(dp2614
g1232
g1036
sg1233
g1483
sg278
g1048
sbsS'IwGxShaderTechnique.h'
p2615
g252
(g1228
g254
Ntp2616
Rp2617
(dp2618
g1232
g1060
sg1233
g1358
sg278
g1089
sbsS'IwCore.h'
p2619
g252
(g1228
g254
Ntp2620
Rp2621
(dp2622
g1232
g1114
sg1233
g1269
sg278
g1121
sbsS'cfloat'
p2623
g252
(g1228
g254
Ntp2624
Rp2625
(dp2626
g1232
g1240
sg1233
g1241
sg278
S'c:/marmalade/6.3/s3e/h/std/c++/cfloat'
p2627
sbsS'IwGeomMat2D.h'
p2628
g252
(g1228
g254
Ntp2629
Rp2630
(dp2631
g1232
g968
sg1233
g1250
sg278
g975
sbsS'IwAllocator.h'
p2632
g252
(g1228
g254
Ntp2633
Rp2634
(dp2635
g1232
g1114
sg1233
g1269
sg278
g1206
sbsS'IwPath.h'
p2636
g252
(g1228
g254
Ntp2637
Rp2638
(dp2639
g1232
g1114
sg1233
g1269
sg278
g1135
sbsS'iwgxfont.mkf'
p2640
g252
(g1228
g254
Ntp2641
Rp2642
(dp2643
g1232
g946
sg1233
g1234
sg278
g944
sbsS'IwTexture.h'
p2644
g252
(g1228
g254
Ntp2645
Rp2646
(dp2647
g1232
g1060
sg1233
g1358
sg278
g1108
sbsS's3eAccelerometer.h'
p2648
g252
(g1228
g254
Ntp2649
Rp2650
(dp2651
g1232
g1240
sg1233
g1256
sg278
S'c:/marmalade/6.3/s3e/h/s3eAccelerometer.h'
p2652
sbsS'setjmp.h'
p2653
g252
(g1228
g254
Ntp2654
Rp2655
(dp2656
g1232
g1240
sg1233
g1262
sg278
S'c:/marmalade/6.3/s3e/h/std/setjmp.h'
p2657
sbsS'pngconf.h'
p2658
g252
(g1228
g254
Ntp2659
Rp2660
(dp2661
g1232
g833
sg1233
g1927
sg278
g834
sbsS'IwTextParseable.h'
p2662
g252
(g1228
g254
Ntp2663
Rp2664
(dp2665
g1232
g1114
sg1233
g1269
sg278
g1192
sbsS'istream.h'
p2666
g252
(g1228
g254
Ntp2667
Rp2668
(dp2669
g1232
g1240
sg1233
g1241
sg278
S'c:/marmalade/6.3/s3e/h/std/c++/istream.h'
p2670
sbsS'stdint.h'
p2671
g252
(g1228
g254
Ntp2672
Rp2673
(dp2674
g1232
g1240
sg1233
g1262
sg278
S'c:/marmalade/6.3/s3e/h/std/stdint.h'
p2675
sbsS'semaphore.h'
p2676
g252
(g1228
g254
Ntp2677
Rp2678
(dp2679
g1232
g1240
sg1233
g1262
sg278
S'c:/marmalade/6.3/s3e/h/std/semaphore.h'
p2680
sbsS'ctime'
p2681
g252
(g1228
g254
Ntp2682
Rp2683
(dp2684
g1232
g1240
sg1233
g1241
sg278
S'c:/marmalade/6.3/s3e/h/std/c++/ctime'
p2685
sbsS'sstream'
p2686
g252
(g1228
g254
Ntp2687
Rp2688
(dp2689
g1232
g1240
sg1233
g1241
sg278
S'c:/marmalade/6.3/s3e/h/std/c++/sstream'
p2690
sbsS'IwGeomFBBox.h'
p2691
g252
(g1228
g254
Ntp2692
Rp2693
(dp2694
g1232
g968
sg1233
g1250
sg278
g989
sbsS'IwDebugPrim.h'
p2695
g252
(g1228
g254
Ntp2696
Rp2697
(dp2698
g1232
g1060
sg1233
g1358
sg278
g1065
sbsS'IwGxFontContainer.h'
p2699
g252
(g1228
g254
Ntp2700
Rp2701
(dp2702
g1232
g949
sg1233
g1234
sg278
g958
sbsS'IwGeomSVec3.h'
p2703
g252
(g1228
g254
Ntp2704
Rp2705
(dp2706
g1232
g968
sg1233
g1250
sg278
g1010
sbsS'cassert'
p2707
g252
(g1228
g254
Ntp2708
Rp2709
(dp2710
g1232
g1240
sg1233
g1241
sg278
S'c:/marmalade/6.3/s3e/h/std/c++/cassert'
p2711
sbsS'IwGeomFVec3.h'
p2712
g252
(g1228
g254
Ntp2713
Rp2714
(dp2715
g1232
g968
sg1233
g1250
sg278
g1014
sbsS'streambuf'
p2716
g252
(g1228
g254
Ntp2717
Rp2718
(dp2719
g1232
g1240
sg1233
g1241
sg278
S'c:/marmalade/6.3/s3e/h/std/c++/streambuf'
p2720
sbsS's3eMetrics.h'
p2721
g252
(g1228
g254
Ntp2722
Rp2723
(dp2724
g1232
g1240
sg1233
g1446
sg278
S'c:/marmalade/6.3/s3e/h/ext/s3eMetrics.h'
p2725
sbsS'IwGxFont.h'
p2726
g252
(g1228
g254
Ntp2727
Rp2728
(dp2729
g1232
g949
sg1233
g1234
sg278
g960
sbsS's3eSecureStorage.h'
p2730
g252
(g1228
g254
Ntp2731
Rp2732
(dp2733
g1232
g1240
sg1233
g1256
sg278
S'c:/marmalade/6.3/s3e/h/s3eSecureStorage.h'
p2734
sbsS'string.h'
p2735
g252
(g1228
g254
Ntp2736
Rp2737
(dp2738
g1232
g1240
sg1233
g1262
sg278
S'c:/marmalade/6.3/s3e/h/std/string.h'
p2739
sbsS'IwResource.h'
p2740
g252
(g1228
g254
Ntp2741
Rp2742
(dp2743
g1232
g1114
sg1233
g1269
sg278
g1186
sbsS'libjpeg.mkf'
p2744
g252
(g1228
g254
Ntp2745
Rp2746
(dp2747
g1232
g873
sg1233
(lp2748
g839
asg278
g871
sbsS'IwGxDebug.h'
p2749
g252
(g1228
g254
Ntp2750
Rp2751
(dp2752
g1232
g1060
sg1233
g1358
sg278
g1106
sbsS'pthread_types.h'
p2753
g252
(g1228
g254
Ntp2754
Rp2755
(dp2756
g1232
g1240
sg1233
g1262
sg278
S'c:/marmalade/6.3/s3e/h/std/pthread_types.h'
p2757
sbsS'iomanip.h'
p2758
g252
(g1228
g254
Ntp2759
Rp2760
(dp2761
g1232
g1240
sg1233
g1241
sg278
S'c:/marmalade/6.3/s3e/h/std/c++/iomanip.h'
p2762
sbsS'rendering.h'
p2763
g252
(g1228
g254
Ntp2764
Rp2765
(dp2766
g1232
g890
sg1233
g1390
sg278
g907
sbsS'IwKeymap.h'
p2767
g252
(g1228
g254
Ntp2768
Rp2769
(dp2770
g1232
g1114
sg1233
g1269
sg278
g1212
sbsS'IwDebug.h'
p2771
g252
(g1228
g254
Ntp2772
Rp2773
(dp2774
g1232
g1114
sg1233
g1269
sg278
g1115
sbsS's3eIOSBackgroundAudio.h'
p2775
g252
(g1228
g254
Ntp2776
Rp2777
(dp2778
g1232
g1240
sg1233
g1446
sg278
S'c:/marmalade/6.3/s3e/h/ext/s3eIOSBackgroundAudio.h'
p2779
sbsS'IwGeomMenu.h'
p2780
g252
(g1228
g254
Ntp2781
Rp2782
(dp2783
g1232
g968
sg1233
g1250
sg278
g1006
sbsS'IwDivTable.h'
p2784
g252
(g1228
g254
Ntp2785
Rp2786
(dp2787
g1232
g1114
sg1233
g1269
sg278
g1170
sbsS'ctype.h'
p2788
g252
(g1228
g254
Ntp2789
Rp2790
(dp2791
g1232
g1240
sg1233
g1262
sg278
S'c:/marmalade/6.3/s3e/h/std/ctype.h'
p2792
sbsS'IwGeomMat.h'
p2793
g252
(g1228
g254
Ntp2794
Rp2795
(dp2796
g1232
g968
sg1233
g1250
sg278
g979
sbsS'IwResGroup.h'
p2797
g252
(g1228
g254
Ntp2798
Rp2799
(dp2800
g1232
g1036
sg1233
g1483
sg278
g1034
sbsS'signal_1.h'
p2801
g252
(g1228
g254
Ntp2802
Rp2803
(dp2804
g1232
g1240
sg1233
g1372
sg278
S'c:/marmalade/6.3/s3e/h/std/sys/signal.h'
p2805
sbsS'main.cpp'
p2806
g252
(g1228
g254
Ntp2807
Rp2808
(dp2809
g1232
g890
sg1233
g1390
sg278
g897
sbsS'shm.h'
p2810
g252
(g1228
g254
Ntp2811
Rp2812
(dp2813
g1232
g1240
sg1233
g1372
sg278
S'c:/marmalade/6.3/s3e/h/std/sys/shm.h'
p2814
sbsS'jpegint.h'
p2815
g252
(g1228
g254
Ntp2816
Rp2817
(dp2818
g1232
g844
sg1233
g1314
sg278
g869
sbsS'prctl.h'
p2819
g252
(g1228
g254
Ntp2820
Rp2821
(dp2822
g1232
g1240
sg1233
g1372
sg278
S'c:/marmalade/6.3/s3e/h/std/sys/prctl.h'
p2823
sbsS'un.h'
p2824
g252
(g1228
g254
Ntp2825
Rp2826
(dp2827
g1232
g1240
sg1233
g1372
sg278
S'c:/marmalade/6.3/s3e/h/std/sys/un.h'
p2828
sbsS'utility'
p2829
g252
(g1228
g254
Ntp2830
Rp2831
(dp2832
g1232
g1240
sg1233
g1241
sg278
S'c:/marmalade/6.3/s3e/h/std/c++/utility'
p2833
sbsS'IwGeomLegacy.h'
p2834
g252
(g1228
g254
Ntp2835
Rp2836
(dp2837
g1232
g968
sg1233
g1250
sg278
g1022
sbsS'IwTPage.h'
p2838
g252
(g1228
g254
Ntp2839
Rp2840
(dp2841
g1232
g1060
sg1233
g1358
sg278
g1083
sbsS'IwResSerialise.h'
p2842
g252
(g1228
g254
Ntp2843
Rp2844
(dp2845
g1232
g1036
sg1233
g1483
sg278
g1050
sbsS's3eCrypto.h'
p2846
g252
(g1228
g254
Ntp2847
Rp2848
(dp2849
g1232
g1240
sg1233
g1256
sg278
S'c:/marmalade/6.3/s3e/h/s3eCrypto.h'
p2850
sbsS's3eKeyboard.h'
p2851
g252
(g1228
g254
Ntp2852
Rp2853
(dp2854
g1232
g1240
sg1233
g1256
sg278
S'c:/marmalade/6.3/s3e/h/s3eKeyboard.h'
p2855
sbsS'fcntl.h'
p2856
g252
(g1228
g254
Ntp2857
Rp2858
(dp2859
g1232
g1240
sg1233
g1262
sg278
S'c:/marmalade/6.3/s3e/h/std/fcntl.h'
p2860
sbsS'memory.h'
p2861
g252
(g1228
g254
Ntp2862
Rp2863
(dp2864
g1232
g1240
sg1233
g1262
sg278
S'c:/marmalade/6.3/s3e/h/std/memory.h'
p2865
sbsS'pthread.h'
p2866
g252
(g1228
g254
Ntp2867
Rp2868
(dp2869
g1232
g1240
sg1233
g1262
sg278
S'c:/marmalade/6.3/s3e/h/std/pthread.h'
p2870
sbsS'IwGeomIntersect.h'
p2871
g252
(g1228
g254
Ntp2872
Rp2873
(dp2874
g1232
g968
sg1233
g1250
sg278
g996
sbsS'algorithm'
p2875
g252
(g1228
g254
Ntp2876
Rp2877
(dp2878
g1232
g1240
sg1233
g1241
sg278
S'c:/marmalade/6.3/s3e/h/std/c++/algorithm'
p2879
sbsS'egl_1.h'
p2880
g252
(g1228
g254
Ntp2881
Rp2882
(dp2883
g1232
g1240
sg1233
g1777
sg278
S'c:/marmalade/6.3/s3e/h/GLES/egl.h'
p2884
sbsS'ostream.h'
p2885
g252
(g1228
g254
Ntp2886
Rp2887
(dp2888
g1232
g1240
sg1233
g1241
sg278
S'c:/marmalade/6.3/s3e/h/std/c++/ostream.h'
p2889
sbsS'stl_user_config.h'
p2890
g252
(g1228
g254
Ntp2891
Rp2892
(dp2893
g1232
g1240
sg1233
g1241
sg278
S'c:/marmalade/6.3/s3e/h/std/c++/stl_user_config.h'
p2894
sbsS'IwProfileMenu.h'
p2895
g252
(g1228
g254
Ntp2896
Rp2897
(dp2898
g1232
g1114
sg1233
g1269
sg278
g1164
sbsS'app.mkf'
p2899
g252
(g1228
g254
Ntp2900
Rp2901
(dp2902
g1232
g915
sg1233
(lp2903
g884
asg278
g913
sbsS'MarmaladeVersion.h'
p2904
g252
(g1228
g254
Ntp2905
Rp2906
(dp2907
g1232
g1240
sg1233
g1256
sg278
S'c:/marmalade/6.3/s3e/h/MarmaladeVersion.h'
p2908
sbsS'ios.h'
p2909
g252
(g1228
g254
Ntp2910
Rp2911
(dp2912
g1232
g1240
sg1233
g1241
sg278
S'c:/marmalade/6.3/s3e/h/std/c++/ios.h'
p2913
sbsS'IwImageHelper.h'
p2914
g252
(g1228
g254
Ntp2915
Rp2916
(dp2917
g1232
g1114
sg1233
g1269
sg278
g1190
sbsS'hash_set'
p2918
g252
(g1228
g254
Ntp2919
Rp2920
(dp2921
g1232
g1240
sg1233
g1241
sg278
S'c:/marmalade/6.3/s3e/h/std/c++/hash_set'
p2922
sbsS'IwGeomFQuat.h'
p2923
g252
(g1228
g254
Ntp2924
Rp2925
(dp2926
g1232
g968
sg1233
g1250
sg278
g1008
sbsS'jmorecfg.h'
p2927
g252
(g1228
g254
Ntp2928
Rp2929
(dp2930
g1232
g844
sg1233
g1314
sg278
g853
sbsS'eglplatform.h'
p2931
g252
(g1228
g254
Ntp2932
Rp2933
(dp2934
g1232
g1240
sg1233
g1554
sg278
S'c:/marmalade/6.3/s3e/h/EGL/eglplatform.h'
p2935
sbsS'localise.cpp'
p2936
g252
(g1228
g254
Ntp2937
Rp2938
(dp2939
g1232
g890
sg1233
g1390
sg278
g899
sbsS'stdbool.h'
p2940
g252
(g1228
g254
Ntp2941
Rp2942
(dp2943
g1232
g1240
sg1233
g1262
sg278
S'c:/marmalade/6.3/s3e/h/std/stdbool.h'
p2944
sbsS'math_gcc.h'
p2945
g252
(g1228
g254
Ntp2946
Rp2947
(dp2948
g1232
g1240
sg1233
g1262
sg278
S'c:/marmalade/6.3/s3e/h/std/math_gcc.h'
p2949
sbsS's3eMemory.h'
p2950
g252
(g1228
g254
Ntp2951
Rp2952
(dp2953
g1232
g1240
sg1233
g1256
sg278
S'c:/marmalade/6.3/s3e/h/s3eMemory.h'
p2954
sbsS'strings.h'
p2955
g252
(g1228
g254
Ntp2956
Rp2957
(dp2958
g1232
g1240
sg1233
g1262
sg278
S'c:/marmalade/6.3/s3e/h/std/strings.h'
p2959
sbsS's3eFile.h'
p2960
g252
(g1228
g254
Ntp2961
Rp2962
(dp2963
g1232
g1240
sg1233
g1256
sg278
S'c:/marmalade/6.3/s3e/h/s3eFile.h'
p2964
sbsS'IwGxTypes.h'
p2965
g252
(g1228
g254
Ntp2966
Rp2967
(dp2968
g1232
g1060
sg1233
g1358
sg278
g1091
sbsS'cerrno'
p2969
g252
(g1228
g254
Ntp2970
Rp2971
(dp2972
g1232
g1240
sg1233
g1241
sg278
S'c:/marmalade/6.3/s3e/h/std/c++/cerrno'
p2973
sbsS'resource.h'
p2974
g252
(g1228
g254
Ntp2975
Rp2976
(dp2977
g1232
g1240
sg1233
g1372
sg278
S'c:/marmalade/6.3/s3e/h/std/sys/resource.h'
p2978
sbsS'clocale'
p2979
g252
(g1228
g254
Ntp2980
Rp2981
(dp2982
g1232
g1240
sg1233
g1241
sg278
S'c:/marmalade/6.3/s3e/h/std/c++/clocale'
p2983
sbsS'csetjmp'
p2984
g252
(g1228
g254
Ntp2985
Rp2986
(dp2987
g1232
g1240
sg1233
g1241
sg278
S'c:/marmalade/6.3/s3e/h/std/c++/csetjmp'
p2988
sbsS'netdb.h'
p2989
g252
(g1228
g254
Ntp2990
Rp2991
(dp2992
g1232
g1240
sg1233
g1262
sg278
S'c:/marmalade/6.3/s3e/h/std/netdb.h'
p2993
sbsS's3eAndroidJNI.h'
p2994
g252
(g1228
g254
Ntp2995
Rp2996
(dp2997
g1232
g1240
sg1233
g1446
sg278
S'c:/marmalade/6.3/s3e/h/ext/s3eAndroidJNI.h'
p2998
sbsS'stdexcept'
p2999
g252
(g1228
g254
Ntp3000
Rp3001
(dp3002
g1232
g1240
sg1233
g1241
sg278
S'c:/marmalade/6.3/s3e/h/std/c++/stdexcept'
p3003
sbsS'math.h'
p3004
g252
(g1228
g254
Ntp3005
Rp3006
(dp3007
g1232
g1240
sg1233
g1262
sg278
S'c:/marmalade/6.3/s3e/h/std/math.h'
p3008
sbsS'cmath'
p3009
g252
(g1228
g254
Ntp3010
Rp3011
(dp3012
g1232
g1240
sg1233
g1241
sg278
S'c:/marmalade/6.3/s3e/h/std/c++/cmath'
p3013
sbsS'uio.h'
p3014
g252
(g1228
g254
Ntp3015
Rp3016
(dp3017
g1232
g1240
sg1233
g1372
sg278
S'c:/marmalade/6.3/s3e/h/std/sys/uio.h'
p3018
sbsS'IwUncopyable.h'
p3019
g252
(g1228
g254
Ntp3020
Rp3021
(dp3022
g1232
g1114
sg1233
g1269
sg278
g1154
sbssS'tests'
p3023
(lp3024
sS'project_name'
p3025
g260
sS'root_file'
p3026
g109
sS'current_root'
p3027
S'c:/Users/Pietro/Documents/GitHub/Patriot-Missile-Defense'
p3028
sS'dependencies'
p3029
(lp3030
sS'include_paths'
p3031
(lp3032
S'c:/marmalade/6.3/modules/third_party/libjpeg/h'
p3033
aS'c:/marmalade/6.3/modules/third_party/zlib/h'
p3034
aS'c:/marmalade/6.3/modules/third_party/libpng/h'
p3035
aS'c:/marmalade/6.3/modules/iwutil/h'
p3036
aS'c:/marmalade/6.3/modules/iwgeom/h'
p3037
aS'c:/marmalade/6.3/modules/iwresmanager/h'
p3038
aS'c:/marmalade/6.3/modules/iwgl/h'
p3039
aS'c:/marmalade/6.3/modules/iwgx/h'
p3040
aS'c:/marmalade/6.3/modules/third_party/tiniconv/source'
p3041
aS'c:/marmalade/6.3/modules/iwgxfont/h'
p3042
aS'c:/marmalade/6.3/modules/iw2d/h'
p3043
aS'c:/marmalade/6.3/s3e/h'
p3044
aS'c:/marmalade/6.3/s3e/h/ext'
p3045
aS'c:/marmalade/6.3/s3e/h/std'
p3046
aS'c:/marmalade/6.3/s3e/h/std/c++'
p3047
aS'c:/marmalade/6.3/s3e/h/ext_legacy'
p3048
aS'c:/marmalade/6.3/s3e/h/legacy'
p3049
asS'weak_frameworks'
p3050
(lp3051
sS'extprojects'
p3052
(dp3053
sg508
(dp3054
g502
(lp3055
(g70
S'.'
p3056
I0
tp3057
asS'default'
p3058
(lp3059
(S'c:/users/pietro/documents/github/patriot-missile-defense/data/splashscreen.jpg'
p3060
S'splashscreen.jpg'
p3061
I0
tp3062
a(S'c:/users/pietro/documents/github/patriot-missile-defense/data-ram/data-gles2-dx11/resources.group.bin'
p3063
S'resources.group.bin'
p3064
I0
tp3065
asS'artbuild'
p3066
(lp3067
(S'c:/users/pietro/documents/github/patriot-missile-defense/data'
p3068
g3056
I0
tp3069
assS'macro_types'
p3070
(dp3071
g455
I1
sg456
I0
sg457
I0
sg458
I0
sg459
I0
sg460
I0
sg461
I0
sg462
I0
sg464
I0
sg465
I0
sg466
I0
sg467
I0
sg469
I0
sg471
I0
sg472
I0
sg473
I0
sg474
I0
sg475
I1
sg476
I0
sg477
I0
sg478
I0
sg479
I01
sg480
I1
sg481
I0
sg482
I0
sg483
I0
ssS'commands'
p3072
(lp3073
sg511
(g820
S'VC10X'
p3074
S'X86ARM'
p3075
tp3076
sS'subprojectOptions'
p3077
(dp3078
g515
(lp3079
sg517
Nsg519
Nsg520
Nsg521
Nsg522
Nsg523
Nsg524
Nsg525
Nsg526
(lp3080
sg528
Nsg660
Nsg532
Nsg533
Nsg534
Nsg535
Nsg536
Nsg537
Nsg538
Nsg539
Nsg542
Nsg543
(lp3081
sg781
Nsg747
Nsg546
Nsg547
Nsg548
Nsg744
Nsg549
Nsg550
Nsg551
Nsg552
Nsg553
Nsg554
Nsg555
Nsg556
Nsg557
Nsg751
Nsg559
Nsg560
Nsg743
Nsg561
Nsg562
Nsg563
Nsg564
Nsg565
Nsg567
Nsg613
Nsg569
Nsg663
Nsg572
Nsg573
Nsg575
Nsg576
Nsg577
Nsg578
Nsg579
Nsg580
Nsg581
Nsg582
Nsg583
Nsg584
Nsg772
Nsg664
Nsg585
Nsg587
Nsg588
Nsg590
Nsg591
Nsg592
Nsg593
(lp3082
sg595
Nsg596
Nsg597
Nsg598
Nsg599
Nsg600
Nsg601
Nsg602
Nsg603
Nsg669
Nsg605
Nsg607
Nsg609
Nsg610
Nsg611
Nsg612
Nsg568
Nsg614
Nsg670
Nsg623
Nsg618
Nsg619
Nsg620
Nsg621
Nsg622
Nsg616
(lp3083
sg624
Nsg766
Nsg626
Nsg627
Nsg628
Nsg629
Nsg630
Nsg631
Nsg632
Nsg633
Nsg672
Nsg635
Nsg773
Nsg636
(lp3084
sg673
Nsg639
Nsg767
Nsg641
(lp3085
sg643
Nsg644
Nsg645
Nsg646
Nsg647
Nsg608
Nsg650
Nsg651
Nsg652
Nsg653
Nsg654
Nsg655
(lp3086
sg657
Nsg658
Nsg659
Nsg794
Nsg531
Nsg661
Nsg662
Nsg765
Nsg570
(lp3087
sg748
Nsg529
Nsg665
Nsg666
Nsg667
Nsg668
Nsg604
Nsg615
Nsg671
Nsg634
Nsg638
Nsg674
Nsg675
Nsg676
Nsg677
Nsg774
Nsg679
Nsg680
Nsg681
Nsg682
Nsg683
Nsg684
Nsg685
Nsg686
Nsg687
(lp3088
sg689
Nsg690
Nsg691
Nsg692
Nsg693
Nsg694
Nsg695
(lp3089
sg697
Nsg698
Nsg699
Nsg700
Nsg701
Nsg702
Nsg703
(lp3090
sg705
Nsg706
Nsg707
Nsg708
Nsg709
Nsg710
Nsg711
Nsg712
Nsg713
Nsg727
Nsg589
Nsg729
Nsg791
Nsg717
Nsg718
Nsg719
Nsg730
Nsg723
Nsg724
Nsg725
Nsg726
Nsg540
(lp3091
sg728
Nsg716
Nsg776
Nsg722
Nsg731
Nsg741
Nsg732
Nsg788
Nsg734
Nsg735
Nsg736
Nsg737
Nsg738
Nsg739
Nsg740
Nsg648
Nsg742
Nsg574
Nsg558
Nsg745
Nsg746
Nsg545
Nsg715
Nsg749
Nsg750
Nsg649
Nsg752
Nsg753
Nsg754
Nsg755
Nsg756
Nsg757
Nsg758
Nsg759
Nsg760
Nsg761
Nsg762
(lp3092
sg764
Nsg566
Nsg625
Nsg640
Nsg768
Nsg769
Nsg770
Nsg771
Nsg586
Nsg530
Nsg678
Nsg775
Nsg720
g721
sg777
Nsg778
Nsg779
Nsg780
Nsg606
Nsg782
Nsg783
Nsg784
Nsg785
Nsg786
Nsg787
Nsg733
Nsg789
Nsg790
Nsg714
Nsg792
Nsg793
Nsg518
Nsg795
NssS'build_libs'
p3093
(dp3094
sS'frameworks'
p3095
(lp3096
sS'environ'
p3097
(dp3098
sS'target_name_debug'
p3099
g260
sS'builders'
p3100
(dp3101
S'.S'
p3102
(dp3103
S'rvct'
p3104
(lp3105
S'.obj'
p3106
aS'echo ARM Assembling(RVCT) ${SOURCE}...'
p3107
aS'c:/marmalade/6.3/s3e\\rvct\\bin\\armasm -o ${TARGET} ${SOURCE}'
p3108
asS'gcc'
p3109
(lp3110
g3106
aS'echo ARM Assembling(GCC) ${SOURCE}...'
p3111
aS'c:/marmalade/6.3/s3e\\gcc\\bin\\arm-none-eabi-gcc -c -o ${TARGET} ${SOURCE}'
p3112
asS'ppu'
p3113
(lp3114
S'.a'
p3115
aS'echo PPU Assembling(SNC) ${SOURCE}...'
p3116
aS'c:/marmalade/6.3/s3e\\rvct\\bin\\armasm -o ${TARGET} ${SOURCE}'
p3117
assS'.s'
p3118
g3103
sS'.vp'
p3119
(lp3120
NaS'"C:/Marmalade/6.3/s3e/python/python.exe" "c:/marmalade/6.3/modules/iwgx/tools/compile_shaders.py" ${SOURCE}'
p3121
assg513
g0
sbtp3122
.