((dp0
S'arm_dbg_args'
p1
S'-via:"c:\\Users\\Pietro\\Documents\\GitHub\\Patriot-Missile-Defense\\build_patriotmissiledefense_vc10x\\PatriotMissileDefense_vc10x_arm_debug.via" -qemu'
p2
sS'game-icf'
p3
S''
p4
sS'dist'
p5
NsS'module_path_append'
p6
NsS'global_path'
p7
S'c:\\users\\pietro\\documents\\github'
p8
sS'system_path'
p9
S'c:\\marmalade\\6.3\\s3e\\makefile_builder'
p10
sS'android_x86_dbg_args'
p11
S'../../tools/DeployTool/DeployTool.exe --dir "c:\\Users\\Pietro\\Documents\\GitHub\\Patriot-Missile-Defense\\build_patriotmissiledefense_vc10x"'
p12
sS'use_prebuilt'
p13
NsS'arm_rel_rtsm_args'
p14
S'-via:"c:\\Users\\Pietro\\Documents\\GitHub\\Patriot-Missile-Defense\\build_patriotmissiledefense_vc10x\\PatriotMissileDefense_vc10x_arm_release.via" -qemu'
p15
sS'amd64'
p16
NsS'line-width'
p17
I80
sS'gcc_dbg_args'
p18
S'-via:"c:\\Users\\Pietro\\Documents\\GitHub\\Patriot-Missile-Defense\\build_patriotmissiledefense_vc10x\\PatriotMissileDefense_vc10x_gcc_debug.via" -qemu'
p19
sS'android-x86'
p20
NsS'x86_dbg_exe'
p21
S'c:/marmalade/6.3/s3e\\win32\\s3e_simulator_debug.exe'
p22
sS'disable-runtime-checks'
p23
NsS'release'
p24
NsS'no-make'
p25
NsS'optimise-size'
p26
NsS'output-name-debug'
p27
g4
sS'arm-fpu'
p28
S'vfp'
p29
sS'psp'
p30
NsS'proj_name'
p31
S'PatriotMissileDefense_vc10x'
p32
sS'rvct-version'
p33
S'none'
p34
sS'compiler'
p35
g4
sS'execute'
p36
NsS'compile-static'
p37
NsS'msvc-project'
p38
NsS'buildenv'
p39
S'VC10X'
p40
sS'debug'
p41
NsS'module_path'
p42
NsS'use-release-std-libs'
p43
NsS'using_perforce'
p44
I00
sS'mips-s3e'
p45
NsS'shared-arm-lib'
p46
NsS'arm-cpu'
p47
g4
sS'compile-thumb'
p48
NsS'no-ide'
p49
NsS'msvc-version'
p50
S'6.0'
p51
sS'arm'
p52
NsS'builddir'
p53
g4
sS'compile-debug-as-release'
p54
I0
sS'brief'
p55
NsS'dll'
p56
NsS'buildenv-toolset'
p57
g4
sS'version'
p58
NsS'ccache'
p59
I0
sS'offline'
p60
NsS'ios-version'
p61
g4
sS'jobs'
p62
I0
sS'linkflags'
p63
NsS'quick'
p64
NsS'gcc_rel_rtsm_args'
p65
S'-via:"c:\\Users\\Pietro\\Documents\\GitHub\\Patriot-Missile-Defense\\build_patriotmissiledefense_vc10x\\PatriotMissileDefense_vc10x_gcc_release.via" -qemu'
p66
sS'done_defaults'
p67
I1
sS'path'
p68
NsS's3e-data-dir'
p69
S'c:/Users/Pietro/Documents/GitHub/Patriot-Missile-Defense\\data'
p70
sS'enable-exceptions'
p71
NsS'osx-dll'
p72
NsS'extension'
p73
g4
sS'no-vc6'
p74
NsS'non-interactive'
p75
NsS'win32-console'
p76
NsS'nds'
p77
NsS'dist-format'
p78
g4
sS's3e-force-arch'
p79
NsS'dump_defines'
p80
NsS'verbose'
p81
I0
sS'psp-minis'
p82
NsS'gcc-version'
p83
g4
sS'x86_dbg_args'
p84
S'-via:"c:\\Users\\Pietro\\Documents\\GitHub\\Patriot-Missile-Defense\\build_patriotmissiledefense_vc10x\\PatriotMissileDefense_vc10x_debug.via"'
p85
sS'arm-debugger'
p86
g4
sS'use_temp_extension'
p87
NsS'log'
p88
NsS'no-strip'
p89
NsS'rebuild'
p90
NsS'win32-simulator-dll'
p91
NsS'strict'
p92
NsS'mips_dbg_args'
p93
g12
sS'enable-global-path'
p94
NsS'iphone'
p95
NsS'cflags'
p96
NsS'dist-dir'
p97
g4
sS'jflags'
p98
NsS'distcc'
p99
NsS'external-compiler'
p100
NsS'no-distcc'
p101
NsS'preinclude'
p102
NsS'using_sdk'
p103
I01
sS'nologo'
p104
NsS'warn-level'
p105
I2
sS'mips_dbg_exe'
p106
S'c:\\marmalade\\6.3\\s3e\\makefile_builder\\tool_launcher.exe'
p107
sS'mkb_in'
p108
S'c:/Users/Pietro/Documents/GitHub/Patriot-Missile-Defense/PatriotMissileDefense.mkb'
p109
sS'arm_dbg_exe'
p110
S'c:/marmalade/6.3/s3e\\bin\\armdebug.exe'
p111
sS'android_x86_dbg_exe'
p112
g107
sS'test-config'
p113
g4
sS'list-targets'
p114
NsS'arm_rel_exe'
p115
g107
sS'arm_rel_args'
p116
g12
sS'makedeps'
p117
NsS'android_x86_rel_exe'
p118
g107
sS'default-buildenv'
p119
S'VC11XWP'
p120
sS'x86_rel_exe'
p121
g22
sS'preprocess-java'
p122
NsS'mips_rel_args'
p123
g12
sS'defines'
p124
NsS'lib'
p125
NsS'global_argv'
p126
(lp127
S'C:\\Marmalade\\6.3\\s3e\\makefile_builder\\mkb.py'
p128
aS'--buildenv=VC10X'
p129
aS'C:\\Users\\Pietro\\Documents\\GitHub\\Patriot-Missile-Defense\\PatriotMissileDefense.mkb'
p130
asS'make'
p131
NsS'optimise-speed'
p132
NsS'internal'
p133
NsS'enable-stdinc'
p134
NsS'deploy-only'
p135
NsS'x86'
p136
NsS'deploy'
p137
g4
sS'x86_run_exe'
p138
S'c:/marmalade/6.3/s3e\\win32\\s3e_console.exe'
p139
sS'x86_rel_args'
p140
S'-via:"c:\\Users\\Pietro\\Documents\\GitHub\\Patriot-Missile-Defense\\build_patriotmissiledefense_vc10x\\PatriotMissileDefense_vc10x_release.via"'
p141
sS'gcc_rel_args'
p142
g12
sS'mips'
p143
NsS'incredibuild'
p144
NsS'strict-compile'
p145
NsS'use-auto-subdirs'
p146
NsS'mips_rel_exe'
p147
g107
sS'android_x86_rel_args'
p148
g12
sS'app-icf'
p149
g4
sS'deployargs'
p150
NsS'mkf_in'
p151
(lp152
S'c:\\marmalade\\6.3\\modules\\iw2d\\iw2d.mkf'
p153
aS'c:\\marmalade\\6.3\\modules\\iwgx\\iwgx.mkf'
p154
aS'c:\\marmalade\\6.3\\modules\\iwgeom\\iwgeom.mkf'
p155
aS'c:\\marmalade\\6.3\\modules\\iwutil\\iwutil.mkf'
p156
aS'c:\\marmalade\\6.3\\modules\\third_party\\libjpeg\\libjpeg.mkf'
p157
aS'c:\\marmalade\\6.3\\modules\\third_party\\libpng\\libpng.mkf'
p158
aS'c:\\marmalade\\6.3\\modules\\third_party\\zlib\\zlib.mkf'
p159
aS'c:\\marmalade\\6.3\\modules\\iwresmanager\\iwresmanager.mkf'
p160
aS'c:\\marmalade\\6.3\\modules\\iwgl\\iwgl.mkf'
p161
aS'c:\\marmalade\\6.3\\modules\\iwgxfont\\iwgxfont.mkf'
p162
aS'c:\\marmalade\\6.3\\modules\\third_party\\tiniconv\\tiniconv.mkf'
p163
aS'c:\\users\\pietro\\documents\\github\\patriot-missile-defense\\patriotmissiledefense.mkf'
p164
asS'strict-mkb'
p165
NsS'executeargs'
p166
NsS'clean'
p167
NsS'no-asm'
p168
NsS'output-name'
p169
g4
sS'no-modules'
p170
NsS'find_define'
p171
g4
s(dp172
S'c:\\marmalade\\6.3\\s3e\\makefile_builder\\templates\\vc7_suo.pyc'
p173
F1374868032.0
sS'c:\\marmalade\\6.3\\s3e\\makefile_builder\\templates\\win32_sln.pyc'
p174
F1374868032.0
sS'c:\\marmalade\\6.3\\s3e\\makefile_builder\\plugins\\s3e_xcode.pyc'
p175
F1382884931.6718085
sS'c:\\marmalade\\6.3\\s3e\\makefile_builder\\docs\\options.txt'
p176
F1374867152.0
sS'c:\\marmalade\\6.3\\s3e\\makefile_builder\\templates\\qmake.py'
p177
F1374867152.0
sS'c:\\marmalade\\6.3\\s3e\\makefile_builder\\plugins\\s3e_wp8.pyc'
p178
F1374868032.0
sS'c:\\marmalade\\6.3\\s3e\\makefile_builder\\templates\\xcode_pbxuser.py'
p179
F1374867152.0
sS'c:\\marmalade\\6.3\\s3e\\makefile_builder\\plugins\\VisualStudioEmitter.pyc'
p180
F1374868032.0
sS'c:\\marmalade\\6.3\\s3e\\makefile_builder\\deployment.pyc'
p181
F1374868030.0
sS'c:\\marmalade\\6.3\\s3e\\makefile_builder\\templates\\scons.pyc'
p182
F1374868032.0
sS'c:\\marmalade\\6.3\\s3e\\makefile_builder\\plugins\\xcode4_schememanagement.pyc'
p183
F1382884930.9000988
sS'c:\\marmalade\\6.3\\s3e\\makefile_builder\\templates\\win32_vcproj.pyc'
p184
F1374868032.0
sS'c:\\marmalade\\6.3\\s3e\\makefile_builder\\plugins\\deploy.pyc'
p185
F1374868030.0
sS'c:\\marmalade\\6.3\\s3e\\makefile_builder\\plugins\\s3e_qmake.py'
p186
F1374867152.0
sS'c:\\marmalade\\6.3\\s3e\\makefile_builder\\templates'
p187
F1381694861.6650052
sS'c:\\marmalade\\6.3\\s3e\\makefile_builder\\templates\\vc6_opt.pyc'
p188
F1374868032.0
sS'c:\\marmalade\\6.3\\s3e\\makefile_builder\\extensions\\make_dist.py'
p189
F1374867152.0
sS'c:\\marmalade\\6.3\\s3e\\makefile_builder\\templates\\Info.plist'
p190
F1374867152.0
sS'c:\\marmalade\\6.3\\s3e\\makefile_builder\\extensions'
p191
F1381694861.6670065
sS'c:\\marmalade\\6.3\\s3e\\makefile_builder\\mkb_launcher.exe'
p192
F1374867478.0
sS'c:\\marmalade\\6.3\\s3e\\makefile_builder\\templates\\template.suo'
p193
F1374867152.0
sS'c:\\marmalade\\6.3\\s3e\\makefile_builder\\mkb_globals.pyc'
p194
F1374868030.0
sS'c:\\marmalade\\6.3\\s3e\\makefile_builder\\plugins\\XcodeEmitter.py'
p195
F1374867152.0
sS'c:\\marmalade\\6.3\\s3e\\makefile_builder\\templates\\gdb_start.txt'
p196
F1374867152.0
sS'c:\\marmalade\\6.3\\s3e\\makefile_builder\\docs\\deprecated.options.txt'
p197
F1374867152.0
sS'c:\\marmalade\\6.3\\s3e\\makefile_builder\\plugins\\wp8_wp8.pyc'
p198
F1374868032.0
sS'c:\\marmalade\\6.3\\s3e\\makefile_builder\\templates\\mips_linker_script'
p199
F1374867152.0
sS'c:\\marmalade\\6.3\\s3e\\makefile_builder\\templates\\wp8_csproj_user.pyc'
p200
F1374868032.0
sS'c:\\marmalade\\6.3\\s3e\\makefile_builder\\plugins\\vc6_utils.pyc'
p201
F1374868032.0
sS'c:\\marmalade\\6.3\\s3e\\makefile_builder\\templates\\win32_vcxproj.pyc'
p202
F1374868032.0
sS'c:\\marmalade\\6.3\\s3e\\makefile_builder\\mkb_main.pyc'
p203
F1374868030.0
sS'c:\\marmalade\\6.3\\s3e\\makefile_builder\\plugins\\java.pyc'
p204
F1374868032.0
sS'c:\\marmalade\\6.3\\s3e\\makefile_builder\\templates\\xcode4.xcscheme'
p205
F1374867152.0
sS'c:\\marmalade\\6.3\\s3e\\makefile_builder\\plugins\\S3EEmitter.pyc'
p206
F1374868032.0
sS'c:\\marmalade\\6.3\\s3e\\makefile_builder\\mkb.py'
p207
F1374867152.0
sS'c:\\marmalade\\6.3\\s3e\\makefile_builder\\templates\\MainWindow.xib'
p208
F1374867152.0
sS'c:\\marmalade\\6.3\\s3e\\makefile_builder\\mkb_parser.pyc'
p209
F1374868030.0
sS'c:\\marmalade\\6.3\\s3e\\makefile_builder\\templates\\xcode4_DeployTool.xcscheme'
p210
F1374867152.0
sS'c:\\marmalade\\6.3\\s3e\\makefile_builder\\tool_launcher.exe'
p211
F1374867478.0
sS'c:\\marmalade\\6.3\\s3e\\makefile_builder\\mkb_util.pyc'
p212
F1374868030.0
sS'c:\\marmalade\\6.3\\s3e\\makefile_builder\\templates\\linker_script'
p213
F1374867152.0
sS'c:\\marmalade\\6.3\\s3e\\makefile_builder\\templates\\win32_vcxproj_filters.pyc'
p214
F1374868032.0
sS'c:\\marmalade\\6.3\\s3e\\makefile_builder\\mkb_option.pyc'
p215
F1374868030.0
sS'c:\\marmalade\\6.3\\s3e\\makefile_builder\\plugins\\vc7_utils.pyc'
p216
F1374868032.0
sS'c:\\marmalade\\6.3\\s3e\\makefile_builder\\templates\\wp8_sln.pyc'
p217
F1374868032.0
sS'c:\\marmalade\\6.3\\s3e\\makefile_builder\\plugins\\s3e_make.pyc'
p218
F1374868030.0
sS'c:\\marmalade\\6.3\\s3e\\makefile_builder\\plugins\\XcodeEmitter.pyc'
p219
F1382884930.8472919
sS'c:\\marmalade\\6.3\\s3e\\makefile_builder\\docs\\deprecated.defines.txt'
p220
F1374867152.0
sS'c:\\marmalade\\6.3\\s3e\\makefile_builder\\docs'
p221
F1381694862.1687815
sS'c:\\marmalade\\6.3\\s3e\\makefile_builder\\templates\\win32_dsw.pyc'
p222
F1374868032.0
sS'c:\\marmalade\\6.3\\s3e\\makefile_builder\\templates\\template.opt'
p223
F1374867152.0
sS'c:\\marmalade\\6.3\\s3e\\makefile_builder\\docs\\deployment_options.txt'
p224
F1374867152.0
sS'c:\\marmalade\\6.3\\s3e\\makefile_builder\\plugins\\Emitter.pyc'
p225
F1374868032.0
sS'c:\\marmalade\\6.3\\s3e\\makefile_builder\\templates\\wp8_vcxproj.pyc'
p226
F1374868032.0
sS'c:\\marmalade\\6.3\\s3e\\makefile_builder\\docs\\mkb.defines.txt'
p227
F1374867152.0
sS'c:\\marmalade\\6.3\\s3e\\makefile_builder\\templates\\xcode.py'
p228
F1374867152.0
sS'c:\\marmalade\\6.3\\s3e\\makefile_builder\\plugins\\s3e_xcode.py'
p229
F1374867152.0
sS'c:\\marmalade\\6.3\\s3e\\makefile_builder\\templates\\win32_dsp.pyc'
p230
F1374868032.0
sS'c:\\marmalade\\6.3\\s3e\\makefile_builder\\plugins\\osx_scons.pyc'
p231
F1374868032.0
sS'c:\\marmalade\\6.3\\s3e\\makefile_builder\\plugins\\SConsEmitter.pyc'
p232
F1374868032.0
sS'c:\\marmalade\\6.3\\s3e\\makefile_builder\\plugins\\s3e_web.pyc'
p233
F1374868030.0
sS'c:\\marmalade\\6.3\\s3e\\makefile_builder\\templates\\make.py'
p234
F1374867152.0
sS'c:\\marmalade\\6.3\\s3e\\makefile_builder\\templates\\wp8_csproj.pyc'
p235
F1374868032.0
sS'c:\\marmalade\\6.3\\s3e\\makefile_builder\\templates\\vc8_user.pyc'
p236
F1374868032.0
sS'c:\\marmalade\\6.3\\s3e\\makefile_builder\\plugins\\osx_xcode.pyc'
p237
F1374868032.0
sS'c:\\marmalade\\6.3\\s3e\\makefile_builder\\plugins'
p238
F1382884931.6708014
sS'c:\\marmalade\\6.3\\s3e\\makefile_builder\\plugins\\s3e_vc6.pyc'
p239
F1374868030.0
sS'c:\\marmalade\\6.3\\s3e\\makefile_builder\\plugins\\MakeEmitter.pyc'
p240
F1374868032.0
sS'c:\\marmalade\\6.3\\s3e\\makefile_builder\\templates\\vc10_user.pyc'
p241
F1374868032.0
sS'c:\\marmalade\\6.3\\s3e\\makefile_builder\\plugins\\s3e_qmake.pyc'
p242
F1382884931.1602416
sS'c:\\marmalade\\6.3\\s3e\\makefile_builder\\plugins\\iphone.pyc'
p243
F1374868032.0
sS'c:\\marmalade\\6.3\\s3e\\makefile_builder\\plugins\\xcode4_schememanagement.py'
p244
F1374867152.0
sS'c:\\marmalade\\6.3\\s3e\\makefile_builder\\templates\\rvct_linker_script'
p245
F1374867152.0
sS'c:\\marmalade\\6.3\\s3e\\makefile_builder\\plugins\\s3e_scons.pyc'
p246
F1374868030.0
sS'c:\\marmalade\\6.3\\s3e\\makefile_builder\\plugins\\null.pyc'
p247
F1374868032.0
sS'c:\\marmalade\\6.3\\s3e\\makefile_builder\\plugins\\win32_vc6.pyc'
p248
F1374868032.0
sS'c:\\marmalade\\6.3\\s3e\\makefile_builder\\docs\\parse_options.pyc'
p249
F1374868032.0
sS'c:\\marmalade\\6.3\\s3e\\makefile_builder\\templates\\qmake_user.py'
p250
F1374867152.0
sS'c:\\marmalade\\6.3\\s3e\\makefile_builder\\plugins\\linux_scons.pyc'
p251
F1374868032.0
sccopy_reg
_reconstructor
p252
(cmkb_main
MkbFile
p253
c__builtin__
object
p254
Ntp255
Rp256
(dp257
g5
(lp258
sS'target_name'
p259
S'PatriotMissileDefense'
p260
sS'current_file'
p261
g109
sS'package_path'
p262
(lp263
sS'post_build'
p264
(lp265
(lp266
S'c:/marmalade/6.3/s3e/tools'
p267
aS'C:\\Marmalade\\6.3\\s3e\\python\\python.exe .\\process_map.py "$(TargetPath)"'
p268
aa(S'c:\\marmalade\\6.3\\s3e'
p269
S'"c:\\marmalade\\6.3\\s3e\\bin\\s3e_plink" -l "$(TargetPath)" '
p270
g136
tp271
asS'librarys'
p272
(lp273
g252
(cmkb_main
Library
p274
g254
Ntp275
Rp276
(dp277
S'name'
p278
S'vc6_compat.lib'
p279
sS'expand_name'
p280
I00
sS'include_spec_rvct_objs'
p281
(lp282
sS'include_all_objs'
p283
I00
sS'share_arm'
p284
I00
sS'arch'
p285
S'x86'
p286
sS'nodebug'
p287
I00
sg35
Nsbag252
(g274
g254
Ntp288
Rp289
(dp290
g278
S'jpeg'
p291
sg280
I01
sg281
(lp292
sg283
Nsg284
Nsg285
Nsg287
I00
sg35
Nsbag252
(g274
g254
Ntp293
Rp294
(dp295
g278
S'z'
p296
sg280
I01
sg281
g292
sg283
Nsg284
Nsg285
Nsg287
I00
sg35
Nsbag252
(g274
g254
Ntp297
Rp298
(dp299
g278
S'png'
p300
sg280
I01
sg281
g292
sg283
Nsg284
Nsg285
Nsg287
I00
sg35
Nsbag252
(g274
g254
Ntp301
Rp302
(dp303
g278
S'iwutil'
p304
sg280
I01
sg281
g292
sg283
Nsg284
I01
sg285
Nsg287
I00
sg35
Nsbag252
(g274
g254
Ntp305
Rp306
(dp307
g278
S'iwgeom'
p308
sg280
I01
sg281
g292
sg283
Nsg284
I01
sg285
Nsg287
I00
sg35
Nsbag252
(g274
g254
Ntp309
Rp310
(dp311
g278
S'iwresmanager'
p312
sg280
I01
sg281
g292
sg283
Nsg284
I01
sg285
Nsg287
I00
sg35
Nsbag252
(g274
g254
Ntp313
Rp314
(dp315
g278
S'ATI_Compress_MT_VC7.lib'
p316
sg280
I00
sg281
g292
sg283
Nsg284
Nsg285
S'x86'
p317
sg287
I00
sg35
Nsbag252
(g274
g254
Ntp318
Rp319
(dp320
g278
S'iwgx'
p321
sg280
I01
sg281
g292
sg283
Nsg284
I01
sg285
Nsg287
I00
sg35
Nsbag252
(g274
g254
Ntp322
Rp323
(dp324
g278
S'iwgl'
p325
sg280
I01
sg281
g292
sg283
Nsg284
Nsg285
Nsg287
I00
sg35
Nsbag252
(g274
g254
Ntp326
Rp327
(dp328
g278
S'iwgxfont'
p329
sg280
I01
sg281
g292
sg283
Nsg284
I01
sg285
Nsg287
I00
sg35
Nsbag252
(g274
g254
Ntp330
Rp331
(dp332
g278
S'tiniconv'
p333
sg280
I01
sg281
g292
sg283
Nsg284
Nsg285
Nsg287
I00
sg35
Nsbag252
(g274
g254
Ntp334
Rp335
(dp336
g278
S'iw2d'
p337
sg280
I01
sg281
g292
sg283
Nsg284
I01
sg285
Nsg287
I00
sg35
Nsbag252
(g274
g254
Ntp338
Rp339
(dp340
g278
S's3e_cpp'
p341
sg280
I01
sg281
g282
sg283
I00
sg284
I00
sg285
Nsg287
I00
sg35
Nsbag252
(g274
g254
Ntp342
Rp343
(dp344
g278
S's3e'
p345
sg280
I01
sg281
(lp346
S'iwcrt.o'
p347
asg283
I00
sg284
I00
sg285
Nsg287
I00
sg35
Nsbag252
(g274
g254
Ntp348
Rp349
(dp350
g278
S's3e_api'
p351
sg280
I01
sg281
g282
sg283
I00
sg284
I00
sg285
S'x86'
p352
sg287
I00
sg35
Nsbag252
(g274
g254
Ntp353
Rp354
(dp355
g278
S's3e_api'
p356
sg280
I01
sg281
g282
sg283
I00
sg284
I00
sg285
S'!x86'
p357
sg287
I1
sg35
Nsbag252
(g274
g254
Ntp358
Rp359
(dp360
g278
S'stdc++'
p361
sg280
I00
sg281
g282
sg283
I00
sg284
I00
sg285
S'mips'
p362
sg287
I00
sg35
Nsbag252
(g274
g254
Ntp363
Rp364
(dp365
g278
S'c'
p366
sg280
I00
sg281
g282
sg283
I00
sg284
I00
sg285
S'mips'
p367
sg287
I00
sg35
Nsbag252
(g274
g254
Ntp368
Rp369
(dp370
g278
S'm'
p371
sg280
I00
sg281
g282
sg283
I00
sg284
I00
sg285
S'mips'
p372
sg287
I00
sg35
Nsbag252
(g274
g254
Ntp373
Rp374
(dp375
g278
S'gcc'
p376
sg280
I00
sg281
g282
sg283
I00
sg284
I00
sg285
S'mips'
p377
sg287
I00
sg35
Nsbag252
(g274
g254
Ntp378
Rp379
(dp380
g278
S'stdc++'
p381
sg280
I00
sg281
g282
sg283
I00
sg284
I00
sg285
S'gcc_x86_android'
p382
sg287
I00
sg35
Nsbag252
(g274
g254
Ntp383
Rp384
(dp385
g278
g366
sg280
I00
sg281
g282
sg283
I00
sg284
I00
sg285
S'gcc_x86_android'
p386
sg287
I00
sg35
Nsbag252
(g274
g254
Ntp387
Rp388
(dp389
g278
g371
sg280
I00
sg281
g282
sg283
I00
sg284
I00
sg285
S'gcc_x86_android'
p390
sg287
I00
sg35
Nsbag252
(g274
g254
Ntp391
Rp392
(dp393
g278
S'gcc'
p394
sg280
I00
sg281
g282
sg283
I00
sg284
I00
sg285
S'gcc_x86_android'
p395
sg287
I00
sg35
NsbasS'library_paths'
p396
(lp397
g252
(cmkb_main
LibraryPath
p398
g254
Ntp399
Rp400
(dp401
S'expand_path'
p402
I01
sS'add_cpu_variant'
p403
I00
sg278
S'c:/marmalade/6.3/modules/third_party/libjpeg'
p404
sbag252
(g398
g254
Ntp405
Rp406
(dp407
g402
I01
sg403
I00
sg278
S'c:/marmalade/6.3/modules/third_party/zlib'
p408
sbag252
(g398
g254
Ntp409
Rp410
(dp411
g402
I01
sg403
I00
sg278
S'c:/marmalade/6.3/modules/third_party/libpng'
p412
sbag252
(g398
g254
Ntp413
Rp414
(dp415
g402
I01
sg403
I00
sg278
S'c:/marmalade/6.3/modules/iwutil'
p416
sbag252
(g398
g254
Ntp417
Rp418
(dp419
g402
I01
sg403
I00
sg278
S'c:/marmalade/6.3/modules/iwgeom'
p420
sbag252
(g398
g254
Ntp421
Rp422
(dp423
g402
I01
sg403
I00
sg278
S'c:/marmalade/6.3/modules/iwresmanager'
p424
sbag252
(g398
g254
Ntp425
Rp426
(dp427
g402
I00
sg403
I00
sg278
S'c:/marmalade/6.3/modules/iwgx/atitools'
p428
sbag252
(g398
g254
Ntp429
Rp430
(dp431
g402
I01
sg403
I00
sg278
S'c:/marmalade/6.3/modules/iwgx'
p432
sbag252
(g398
g254
Ntp433
Rp434
(dp435
g402
I01
sg403
I00
sg278
S'c:/marmalade/6.3/modules/iwgl'
p436
sbag252
(g398
g254
Ntp437
Rp438
(dp439
g402
I01
sg403
I00
sg278
S'c:/marmalade/6.3/modules/iwgxfont'
p440
sbag252
(g398
g254
Ntp441
Rp442
(dp443
g402
I01
sg403
I00
sg278
S'c:/marmalade/6.3/modules/third_party/tiniconv'
p444
sbag252
(g398
g254
Ntp445
Rp446
(dp447
g402
I01
sg403
I00
sg278
S'c:/marmalade/6.3/modules/iw2d'
p448
sbag252
(g398
g254
Ntp449
Rp450
(dp451
g402
I01
sg403
I00
sg278
S'c:/marmalade/6.3/s3e'
p452
sbasS'macros'
p453
(dp454
S'IW_USE_CALLSTACK'
p455
NsS'IW_SDK'
p456
NsS'I3D_PLATFORM_S3E'
p457
NsS'IW_MKF_LIBJPEG'
p458
NsS'I3D_OS_S3E'
p459
NsS'IW_MKF_TINICONV'
p460
NsS'IW_APP_VERSION'
p461
S'"1.0"'
p462
sS'IW_MKF_IWRESMANAGER'
p463
NsS'IW_MKF_IWUTIL'
p464
NsS'IW_MKF_IWGEOM'
p465
NsS'IW_ASSERTION_CHANNEL_2D'
p466
S'1'
p467
sS'IW_APP_NAME'
p468
S'"PatriotMissileDefense"'
p469
sS'IW_MKF_IWGXFONT'
p470
NsS'IW_PLATFORM_S3E'
p471
NsS'IW_MKF_ZLIB'
p472
NsS'IW_MKF_IWGX'
p473
NsS'IW_MKF_PATRIOTMISSILEDEFENSE'
p474
NsS'IW_USE_ASSERTIONS'
p475
NsS'_CRT_SECURE_NO_DEPRECATE'
p476
NsS'IW_MKF_IWGL'
p477
NsS'IW_MKF_LIBPNG'
p478
NsS'IW_DEBUG'
p479
NsS'IW_USE_TRACING'
p480
NsS'S3E_INCLUDE_LEGACY'
p481
NsS'__S3E__'
p482
NsS'IW_MKF_IW2D'
p483
NssS'done_warnings'
p484
(dp485
sS'subprojects'
p486
(dp487
g161
S'iwgl'
p488
sg162
S'iwgxfont'
p489
sg155
S'iwgeom'
p490
sg163
S'tiniconv'
p491
sg157
S'libjpeg'
p492
sg160
S'iwresmanager'
p493
sg158
S'libpng'
p494
sg156
S'iwutil'
p495
sg153
S'iw2d'
p496
sg154
S'iwgx'
p497
sg164
S'PatriotMissileDefense'
p498
sg159
S'zlib'
p499
ssS'deployments'
p500
(dp501
S'Default'
p502
g252
(cdeployment
Deployment
p503
g254
Ntp504
Rp505
(dp506
S'got_version'
p507
I1
sS'assets'
p508
S'default'
p509
sS'mkb'
p510
g256
sS'target'
p511
Nsg285
(lp512
sS'options'
p513
(dp514
S'iphone-link-lib'
p515
(lp516
sS'game-icf'
p517
NsS'symbian-run-on-install'
p518
NsS'iphone-icon-high-res'
p519
NsS'win32-pref-windowposy'
p520
NsS'win32-pref-windowposx'
p521
NsS'bada-appsecret'
p522
NsS'roku-requires-audiometadata'
p523
NsS'playbook-author'
p524
NsS'winmobile-icon32'
p525
NsS'linux-ext-lib'
p526
(lp527
sS'target-folder'
p528
NsS'iphone-splashscreen-landscape'
p529
NsS'wp8-exclude-720p'
p530
NsS'psp-discversion'
p531
NsS'lgtv-use-drm'
p532
NsS'nds-bannertitle-sp'
p533
NsS'symbian-platsecflags'
p534
NsS'psp-producer'
p535
NsS'blackberry-playbook-icon'
p536
NsS'iphone-icon-ipad-search-high-res'
p537
NsS'iphone-provisioning-profile'
p538
NsS'copyright'
p539
NsS'android-extra-application-manifest'
p540
(lp541
sS'winmobile-png45'
p542
NsS'iphone-link-libdir'
p543
(lp544
sS'symbian-cert'
p545
NsS'nds-bannertitle-hn'
p546
NsS'brew-depends'
p547
NsS'wp8-author'
p548
S'Pietro Lorefice'
p549
sS'winmobile-nouninstall'
p550
NsS'android-icon-hdpi'
p551
NsS'iphone-ipad-only'
p552
NsS'iphone-splash-full-orient'
p553
NsS'wp8-tile-fliptemplate-supports-large'
p554
NsS'iphone-bundle-url-name'
p555
NsS'iphone-show-status-bar'
p556
NsS'wp8-tile-fliptemplate-large-front-image'
p557
NsS'android-aliasname'
p558
NsS'iphone-splash-retina-generate'
p559
NsS'psp-dlgmanual'
p560
NsS'iphone-backgroundmode-audio'
p561
NsS'android-pkgname'
p562
NsS'webos-memory'
p563
NsS'brew-uid'
p564
NsS'android-keypass'
p565
NsS'symbian-locationsupport'
p566
NsS'wp8-tile-fliptemplate-large-back-content'
p567
NsS'iphone-signing-host'
p568
NsS'nds-bannertitle-jp'
p569
NsS'name'
p570
NsS'iphone-link-libdirs'
p571
(lp572
sS'osx-info-plist'
p573
NsS'symbian-icon1-format'
p574
NsS'uiq3-uid'
p575
NsS'psp-dlgcontentid'
p576
NsS'roku-splash-screen-sd'
p577
NsS'auto-derbh'
p578
NsS'bada-use-partner-privileges'
p579
NsS'nds-bannertitle-it'
p580
NsS'roku-icon-side-sd'
p581
NsS'blackberry-authorid'
p582
NsS'nds-publicsavedatasize'
p583
NsS'splashscreen'
p584
S'c:/Users/Pietro/Documents/GitHub/Patriot-Missile-Defense/data/splashscreen.jpg'
p585
sS'brew-mif'
p586
NsS'symbian-icon2-format'
p587
NsS'long-caption'
p588
S'Patriot Missile Defense'
p589
sS'iphone-icon-settings-high-res'
p590
NsS'uiq3-icon1-mask'
p591
NsS'iphone-development-cert'
p592
NsS'winmobile-icon16'
p593
NsS's3e-compression'
p594
NsS'wp8-description'
p595
S'A retro shooting game'
p596
sS'iphone-link-opts'
p597
(lp598
sS'wp8-tile-fliptemplate-back-content'
p599
NsS'iphone-region'
p600
NsS'uiq3-icon3-mask'
p601
NsS'winmobile-start-menu-folder'
p602
NsS'roku-splash-min-time'
p603
NsS'brew-encoding'
p604
NsS'roku-requires-bluetooth'
p605
NsS'symbian-icon1'
p606
NsS'symbian-icon2'
p607
NsS'psp-parentallevel'
p608
NsS'wp8-tile-fliptemplate-medium-front-image'
p609
NsS'wp8-tile-fliptemplate-large-back-image'
p610
NsS'version'
p611
(lp612
I0
aI1
aI0
asS'caption'
p613
S'Patriot Missile Defense'
p614
sS'bada-manifest'
p615
NsS'provider'
p616
S'Pietro Lorefice'
p617
sS'iphone-prerendered-icon'
p618
NsS'iphone-appid'
p619
NsS'playbook-keystore'
p620
NsS'nds-initialcode'
p621
NsS'priv-sign-key'
p622
NsS'android-external-jars'
p623
(lp624
sS'blackberry-cskpass'
p625
NsS'iphone-persistent-wifi'
p626
NsS'symbian7-uid'
p627
NsS'winmobile-setup-dll'
p628
NsS'wp8-exclude-wvga'
p629
NsS'symbian-osexecsupport'
p630
NsS'android-install-location'
p631
NsS'olddeploytoolstyle'
p632
NsS'nds-privatesavedatasize'
p633
NsS'symbian9-uid'
p634
NsS'nds-bannertitle-cn'
p635
NsS'winmobile-trace-file'
p636
NsS'roku-splash-color'
p637
NsS'roku-icon-focus-hd'
p638
NsS'android-icon-ldpi'
p639
NsS'iphone-distribution-key'
p640
NsS'networking'
p641
NsS'winmobile-install-folder'
p642
NsS'android-external-res'
p643
(lp644
sS'winmobile-ampd-part-number'
p645
NsS'android-icon-gallery'
p646
NsS'bada-signed'
p647
NsS'android-supports-gl-texture'
p648
(lp649
sS'iphone-apple-wwdr-cert'
p650
NsS'psp-snd0'
p651
NsS'iphone-extra-sections'
p652
NsS'blackberry-keystore'
p653
NsS'iphone-nosign'
p654
NsS'brew-priviledges'
p655
NsS'psp-icon1'
p656
NsS'iphone-icon-large'
p657
NsS'android-storepass'
p658
NsS'playbook-storepass'
p659
NsS'iphone-info-plist'
p660
NsS'wp8-product-id'
p661
NsS'android-extra-manifest'
p662
(lp663
sS'wp8-exclude-low-mem'
p664
NsS'android-custom-activity'
p665
NsS'version-minor'
p666
NsS'iphone-icon-ipad'
p667
NsS'bada-appid'
p668
NsS'psp-appversion'
p669
NsS'roku-hidden'
p670
NsS'psp-copyright'
p671
NsS'symbian-maxheapsize'
p672
NsS'embed-icf'
p673
NsS'psp-titlename'
p674
NsS'symbian-icon1-mask'
p675
NsS'nds-makercode'
p676
NsS'symbian8-uid'
p677
NsS'webos-appinfo'
p678
NsS'symbian-cert-key'
p679
NsS'android-icon'
p680
NsS'webos-appid'
p681
NsS'android-icon-nonstandard'
p682
NsS'roku-icon-side-hd'
p683
NsS'iphone-icon-settings'
p684
NsS'wp8-tile-fliptemplate-medium-back-image'
p685
NsS'iphone-distribution-cert'
p686
NsS'osx-icon'
p687
NsS'nds-titlename'
p688
NsS'splashscreen-auto-onblack'
p689
NsS'manufacturer'
p690
NsS'nds-romheadertemplate'
p691
NsS'webos-icon'
p692
NsS'nds-bannertitle-en'
p693
NsS'win32-ext-dll'
p694
(lp695
sS'psp-dlgicon0'
p696
NsS'iphone-development-key'
p697
NsS'psp-discid'
p698
NsS'winmobile-icon48'
p699
NsS'android-manifest'
p700
NsS'playbook-cskpass'
p701
NsS'android-so'
p702
(lp703
sS'wp8-higher-mem'
p704
NsS'bada-splash'
p705
NsS'version-revision'
p706
NsS'roku-icon-focus-sd'
p707
NsS'android-icon-mdpi'
p708
NsS'android-keystore'
p709
NsS'osx-ext-dll'
p710
(lp711
sS'version-string'
p712
NsS'winmobile-png90'
p713
NsS'roku-splash-screen-hd'
p714
NsS'iphone-icon-ipad-high-res'
p715
NsS'iphone-disable-ipad'
p716
NsS'uiq3-icon1-format'
p717
NsS'iphone-bundle-url-schemes'
p718
NsS'nds-icon'
p719
NsS'roku-screensaver-private'
p720
NsS'wp8-tile-fliptemplate-small-image'
p721
NsS'winmobile-png60'
p722
NsS'playbook-authorid'
p723
NsS'android_extra_strings'
p724
NsS'playbook-icon'
p725
NsS'uid'
p726
NsS'icon'
p727
S'c:/Users/Pietro/Documents/GitHub/Patriot-Missile-Defense/icons/icon.png'
p728
sS'iphone-signing-identity'
p729
NsS'brew-icon-medium'
p730
NsS'roku-persist-quota'
p731
NsS'symbian-icon2-mask-black'
p732
NsS'winmobile-icon64'
p733
NsS'blackberry-phone-icon'
p734
NsS'iphone-enable-4inch-retina'
p735
NsS'pkguid-as-uid'
p736
NsS'symbian-icon1-mask-black'
p737
NsS'uiq3-icon2'
p738
NsS'uiq3-icon2-format'
p739
NsS'pub-sign-key'
p740
NsS'nds-bannertitle-fr'
p741
NsS'win32-pref-windowtitle'
p742
NsS'symbian-disable-ecompxl'
p743
NsS'psp-dlgprotectdocument'
p744
NsS'symbian-soundrecordsupport'
p745
NsS'splashscreen-use-all'
p746
NsS'roku-screensaver-title'
p747
NsS'brew-clsid'
p748
NsS'wp8-genre-isgame'
p749
NsS'brew-icon-small'
p750
NsS'psp-dlgpic2'
p751
NsS'bada-icon'
p752
NsS'psp-dlgpic0'
p753
NsS'psp-pic0'
p754
NsS'psp-pic1'
p755
NsS'iphone-icon'
p756
NsS'psp-icon0'
p757
NsS'blackberry-permissions-access-shared'
p758
NsS'uiq3-icon3-format'
p759
NsS'version-major'
p760
NsS'iphone_bundle_localisations'
p761
NsS'winmobile-icon'
p762
NsS'roku-requires-mkv'
p763
NsS'blackberry-author'
p764
NsS'symbian-keypwd'
p765
NsS'iphone-no-splash'
p766
NsS'playbook-access-shared'
p767
NsS'psp-dlghealthwarning'
p768
NsS'iphone-link-libs'
p769
(lp770
sS'wp8-custom-manifest'
p771
NsS'iphone-splash'
p772
NsS'nds-bannertitle-ge'
p773
NsS'android_icon_gallery'
p774
NsS'brew-icon-large'
p775
NsS'iphone-app-fonts'
p776
NsS'symbian-icon2-mask'
p777
NsS'iphone-sign-for-distribution'
p778
NsS'android-unsigned'
p779
NsS'arch'
p780
NsS'uiq3-icon3'
p781
NsS'wp8-publisher-id'
p782
S'{ddb16f06-a317-4cd1-904a-2dfd55808386}'
p783
sS'uiq3-icon1'
p784
NsS'itunes-artwork'
p785
NsS'android-x86'
p786
NsS'win32-icon'
p787
NsS'assets'
p788
NsS'symbian-key'
p789
NsS'app-icf'
p790
(lp791
S'c:/Users/Pietro/Documents/GitHub/Patriot-Missile-Defense/data/app.icf'
p792
asS'blackberry-storepass'
p793
NsS'winmobile-cab-compress'
p794
NsS'wp8-tile-fliptemplate-back-title'
p795
NsS'wp8-custom-manifest-fill'
p796
NsS'wp8-exclude-wxga'
p797
NsS'brew-compress-loader'
p798
NsS'wp8-tile-fliptemplate-title'
p799
NsS'uiq3-icon2-mask'
p800
NsS'iphone-icon-ipad-search'
p801
NsS'symbian-icon-svg'
p802
NsS'android-extra-strings'
p803
NsS'iphone-splashscreen-portrait'
p804
NsS'iphone-bundle-localisations'
p805
Nssg278
g502
sbsS'default'
p806
g252
(g503
g254
Ntp807
Rp808
(dp809
g507
I0
sg508
S'default'
p810
sg510
g256
sg511
Nsg285
(lp811
sg513
(dp812
g515
(lp813
sg517
Nsg518
Nsg519
Nsg520
Nsg521
Nsg522
Nsg523
Nsg524
Nsg525
Nsg655
Nsg526
(lp814
sg528
Nsg529
Nsg530
Nsg531
Nsg532
Nsg533
Nsg534
Nsg535
Nsg536
Nsg537
Nsg538
Nsg539
Nsg540
(lp815
sg542
Nsg543
(lp816
sg545
Nsg546
Nsg547
Nsg548
Nsg550
Nsg551
Nsg552
Nsg553
Nsg554
Nsg555
Nsg556
Nsg557
Nsg558
Nsg559
Nsg560
Nsg561
Nsg562
Nsg563
Nsg564
Nsg565
Nsg566
Nsg567
Nsg568
Nsg569
Nsg570
Nsg571
(lp817
sg573
Nsg574
Nsg575
Nsg576
Nsg577
Nsg578
Nsg579
Nsg580
Nsg581
Nsg582
Nsg583
Nsg584
Nsg586
Nsg587
Nsg588
Nsg590
Nsg591
Nsg593
Nsg594
Nsg595
Nsg597
(lp818
sg599
Nsg600
Nsg601
Nsg700
Nsg602
Nsg603
Nsg604
Nsg605
Nsg606
Nsg607
Nsg608
Nsg609
Nsg610
Nsg611
Nsg615
Nsg616
Nsg618
Nsg619
Nsg620
Nsg621
Nsg622
Nsg623
(lp819
sg625
Nsg626
Nsg627
Nsg628
Nsg772
Nsg630
Nsg631
Nsg632
Nsg633
Nsg634
Nsg635
Nsg636
Nsg637
Nsg638
Nsg639
Nsg640
Nsg641
Nsg642
Nsg643
(lp820
sg645
Nsg646
Nsg647
Nsg648
(lp821
sg650
Nsg651
Nsg652
Nsg653
Nsg654
Nsg613
Nsg656
Nsg657
Nsg658
Nsg659
Nsg660
Nsg661
Nsg662
(lp822
sg721
Nsg664
Nsg665
Nsg666
Nsg667
Nsg668
Nsg669
Nsg670
Nsg671
Nsg672
Nsg673
Nsg674
Nsg675
Nsg676
Nsg677
Nsg678
Nsg679
Nsg680
Nsg681
Nsg682
Nsg683
Nsg684
Nsg685
Nsg686
Nsg687
Nsg688
Nsg689
Nsg690
Nsg691
Nsg692
Nsg693
Nsg694
(lp823
sg696
Nsg697
Nsg698
Nsg699
Nsg779
Nsg701
Nsg702
(lp824
sg704
Nsg705
Nsg706
Nsg707
Nsg708
Nsg709
Nsg710
(lp825
sg712
Nsg713
Nsg714
Nsg715
Nsg716
Nsg717
Nsg718
Nsg719
Nsg720
Nsg592
Nsg722
Nsg723
Nsg724
Nsg725
Nsg726
Nsg727
S'c:/users/pietro/documents/github/patriot-missile-defense/icons'
p826
sg729
Nsg730
Nsg731
Nsg732
Nsg733
Nsg734
Nsg735
Nsg736
Nsg737
Nsg738
Nsg739
Nsg740
Nsg741
Nsg742
Nsg743
Nsg745
Nsg746
Nsg747
Nsg748
Nsg749
Nsg750
Nsg751
Nsg752
Nsg753
Nsg754
Nsg755
Nsg756
Nsg757
Nsg758
Nsg759
Nsg760
Nsg761
Nsg762
Nsg763
Nsg764
Nsg765
Nsg766
Nsg767
Nsg768
Nsg769
(lp827
sg771
Nsg629
Nsg773
Nsg774
Nsg775
Nsg776
Nsg777
Nsg778
Nsg744
Nsg780
Nsg781
Nsg782
Nsg784
Nsg785
Nsg786
Nsg787
Nsg788
Nsg789
Nsg790
Nsg793
Nsg794
Nsg795
Nsg796
Nsg797
Nsg798
Nsg799
Nsg800
Nsg801
Nsg802
Nsg803
Nsg804
Nsg805
Nssg278
g806
sbsS'artbuild'
p828
g252
(g503
g254
Ntp829
Rp830
(dp831
g507
I0
sg508
S'artbuild'
p832
sg510
g256
sg511
(lp833
S'win32'
p834
asg285
(lp835
sg513
(dp836
g515
(lp837
sg517
Nsg518
Nsg519
Nsg520
Nsg521
Nsg522
Nsg523
Nsg524
Nsg525
Nsg655
Nsg526
(lp838
sg528
Nsg529
Nsg530
Nsg531
Nsg532
Nsg533
Nsg534
Nsg535
Nsg536
Nsg537
Nsg538
Nsg539
Nsg540
(lp839
sg542
Nsg543
(lp840
sg545
Nsg546
Nsg547
Nsg548
Nsg550
Nsg551
Nsg552
Nsg553
Nsg554
Nsg555
Nsg556
Nsg557
Nsg558
Nsg559
Nsg560
Nsg561
Nsg562
Nsg563
Nsg564
Nsg565
Nsg566
Nsg567
Nsg568
Nsg569
Nsg570
Nsg571
(lp841
sg573
Nsg574
Nsg575
Nsg576
Nsg577
Nsg578
Nsg579
Nsg580
Nsg581
Nsg582
Nsg583
Nsg584
Nsg586
Nsg587
Nsg588
Nsg590
Nsg591
Nsg593
Nsg594
Nsg595
Nsg597
(lp842
sg599
Nsg600
Nsg601
Nsg700
Nsg602
Nsg603
Nsg604
Nsg605
Nsg606
Nsg607
Nsg608
Nsg609
Nsg610
Nsg611
Nsg615
Nsg616
Nsg618
Nsg619
Nsg620
Nsg621
Nsg622
Nsg623
(lp843
sg625
Nsg626
Nsg627
Nsg628
Nsg772
Nsg630
Nsg631
Nsg632
Nsg633
Nsg634
Nsg635
Nsg636
Nsg637
Nsg638
Nsg639
Nsg640
Nsg641
Nsg642
Nsg643
(lp844
sg645
Nsg646
Nsg647
Nsg648
(lp845
sg650
Nsg651
Nsg652
Nsg653
Nsg654
Nsg613
Nsg656
Nsg657
Nsg658
Nsg659
Nsg660
Nsg661
Nsg662
(lp846
sg721
Nsg664
Nsg665
Nsg666
Nsg667
Nsg668
Nsg669
Nsg670
Nsg671
Nsg672
Nsg673
Nsg674
Nsg675
Nsg676
Nsg677
Nsg678
Nsg679
Nsg680
Nsg681
Nsg682
Nsg683
Nsg684
Nsg685
Nsg686
Nsg687
Nsg688
Nsg689
Nsg690
Nsg691
Nsg692
Nsg693
Nsg694
(lp847
sg696
Nsg697
Nsg698
Nsg699
Nsg779
Nsg701
Nsg702
(lp848
sg704
Nsg705
Nsg706
Nsg707
Nsg708
Nsg709
Nsg710
(lp849
sg712
Nsg713
Nsg714
Nsg715
Nsg716
Nsg717
Nsg718
Nsg719
Nsg720
Nsg592
Nsg722
Nsg723
Nsg724
Nsg725
Nsg726
Nsg727
Nsg729
Nsg730
Nsg731
Nsg732
Nsg733
Nsg734
Nsg735
Nsg736
Nsg737
Nsg738
Nsg739
Nsg740
Nsg741
Nsg742
Nsg743
Nsg745
Nsg746
Nsg747
Nsg748
Nsg749
Nsg750
Nsg751
Nsg752
Nsg753
Nsg754
Nsg755
Nsg756
Nsg757
Nsg758
Nsg759
Nsg760
Nsg761
Nsg762
Nsg763
Nsg764
Nsg765
Nsg766
Nsg767
Nsg768
Nsg769
(lp850
sg771
Nsg629
Nsg773
Nsg774
Nsg775
Nsg776
Nsg777
Nsg778
Nsg744
Nsg780
Nsg781
Nsg782
Nsg784
Nsg785
Nsg786
Nsg787
Nsg788
Nsg789
Nsg790
Nsg793
Nsg794
Nsg795
Nsg796
Nsg797
Nsg798
Nsg799
Nsg800
Nsg801
Nsg802
Nsg803
Nsg804
Nsg805
Nssg278
g828
sbssS'platform'
p851
S'S3E'
p852
sg58
S'1.0'
p853
sS'arcade_platform'
p854
g4
sS'extensions'
p855
(dp856
sS'source_groups_tree'
p857
(dp858
S'(libpng)'
p859
(dp860
S'h'
p861
(dp862
S'c:/marmalade/6.3/modules/third_party/libpng/h/png.h'
p863
(lp864
I1
a(dp865
asS'c:/marmalade/6.3/modules/third_party/libpng/h/pngconf.h'
p866
(lp867
I1
ag865
assS'c:/marmalade/6.3/modules/third_party/libpng/libpng.mkf'
p868
(lp869
I1
a(dp870
assS'(libjpeg)'
p871
(dp872
g861
(dp873
S'c:/marmalade/6.3/modules/third_party/libjpeg/h/jmemsys.h'
p874
(lp875
I1
a(dp876
asS'c:/marmalade/6.3/modules/third_party/libjpeg/h/jinclude.h'
p877
(lp878
I1
ag876
asS'c:/marmalade/6.3/modules/third_party/libjpeg/h/jconfig.h'
p879
(lp880
I1
ag876
asS'c:/marmalade/6.3/modules/third_party/libjpeg/h/cderror.h'
p881
(lp882
I1
ag876
asS'c:/marmalade/6.3/modules/third_party/libjpeg/h/transupp.h'
p883
(lp884
I1
ag876
asS'c:/marmalade/6.3/modules/third_party/libjpeg/h/jmorecfg.h'
p885
(lp886
I1
ag876
asS'c:/marmalade/6.3/modules/third_party/libjpeg/h/jerror.h'
p887
(lp888
I1
ag876
asS'c:/marmalade/6.3/modules/third_party/libjpeg/h/jversion.h'
p889
(lp890
I1
ag876
asS'c:/marmalade/6.3/modules/third_party/libjpeg/h/cdjpeg.h'
p891
(lp892
I1
ag876
asS'c:/marmalade/6.3/modules/third_party/libjpeg/h/jchuff.h'
p893
(lp894
I1
ag876
asS'c:/marmalade/6.3/modules/third_party/libjpeg/h/jdct.h'
p895
(lp896
I1
ag876
asS'c:/marmalade/6.3/modules/third_party/libjpeg/h/jpeglib.h'
p897
(lp898
I1
ag876
asS'c:/marmalade/6.3/modules/third_party/libjpeg/h/jdhuff.h'
p899
(lp900
I1
ag876
asS'c:/marmalade/6.3/modules/third_party/libjpeg/h/jpegint.h'
p901
(lp902
I1
ag876
assS'c:/marmalade/6.3/modules/third_party/libjpeg/libjpeg.mkf'
p903
(lp904
I1
a(dp905
assS'(tiniconv)'
p906
(dp907
S'c:/marmalade/6.3/modules/third_party/tiniconv/source/tiniconv.h'
p908
(lp909
I1
a(dp910
asS'c:/marmalade/6.3/modules/third_party/tiniconv/source/tiniconv_int.h'
p911
(lp912
I1
ag910
asS'c:/marmalade/6.3/modules/third_party/tiniconv/tiniconv.mkf'
p913
(lp914
I1
a(dp915
assS'(PatriotMissileDefense)'
p916
(dp917
S'Source'
p918
(dp919
S'c:/users/pietro/documents/github/patriot-missile-defense/source/game.cpp'
p920
(lp921
I1
a(dp922
asS'c:/users/pietro/documents/github/patriot-missile-defense/source/localise.h'
p923
(lp924
I1
ag922
asS'c:/users/pietro/documents/github/patriot-missile-defense/source/effects.cpp'
p925
(lp926
I1
ag922
asS'c:/users/pietro/documents/github/patriot-missile-defense/source/titlescreen.h'
p927
(lp928
I1
ag922
asS'c:/users/pietro/documents/github/patriot-missile-defense/source/main.cpp'
p929
(lp930
I1
ag922
asS'c:/users/pietro/documents/github/patriot-missile-defense/source/localise.cpp'
p931
(lp932
I1
ag922
asS'c:/users/pietro/documents/github/patriot-missile-defense/source/game.h'
p933
(lp934
I1
ag922
asS'c:/users/pietro/documents/github/patriot-missile-defense/source/rendering.cpp'
p935
(lp936
I1
ag922
asS'c:/users/pietro/documents/github/patriot-missile-defense/source/effects.h'
p937
(lp938
I1
ag922
asS'c:/users/pietro/documents/github/patriot-missile-defense/source/rendering.h'
p939
(lp940
I1
ag922
assS'c:/users/pietro/documents/github/patriot-missile-defense/patriotmissiledefense.mkf'
p941
(lp942
I1
a(dp943
asS'Data'
p944
(dp945
S'c:/users/pietro/documents/github/patriot-missile-defense/data/resources.group'
p946
(lp947
I1
ag922
asssS"'Marmalade Studio'"
p948
(dp949
S'iwgl'
p950
(dp951
S'c:/marmalade/6.3/modules/iwgl/h/IwGL.h'
p952
(lp953
I1
a(dp954
asS'c:/marmalade/6.3/modules/iwgl/iwgl.mkf'
p955
(lp956
I1
a(dp957
asS'c:/marmalade/6.3/modules/iwgl/docs/iwgl.config.txt'
p958
(lp959
I1
ag954
asS'c:/marmalade/6.3/modules/iwgl/h/IwGLExt.h'
p960
(lp961
I1
ag954
assS'iw2d'
p962
(dp963
S'c:/marmalade/6.3/modules/iw2d/iw2d.mkf'
p964
(lp965
I1
a(dp966
asS'c:/marmalade/6.3/modules/iw2d/docs/iw2d_public.defines.txt'
p967
(lp968
I1
a(dp969
asS'c:/marmalade/6.3/modules/iw2d/h/Iw2D.h'
p970
(lp971
I1
ag969
asS'c:/marmalade/6.3/modules/iw2d/docs/iw2d.config.txt'
p972
(lp973
I1
ag969
assS'iwgxfont'
p974
(dp975
S'c:/marmalade/6.3/modules/iwgxfont/iwgxfont.mkf'
p976
(lp977
I1
a(dp978
asS'c:/marmalade/6.3/modules/iwgxfont/docs/iwgxfont.config.txt'
p979
(lp980
I1
a(dp981
asS'c:/marmalade/6.3/modules/iwgxfont/h/IwGxFontPreparedData.h'
p982
(lp983
I1
ag981
asS'c:/marmalade/6.3/modules/iwgxfont/h/IwGxFontState.h'
p984
(lp985
I1
ag981
asS'c:/marmalade/6.3/modules/iwgxfont/docs/iwgxfont_public.defines.txt'
p986
(lp987
I1
ag981
asS'c:/marmalade/6.3/modules/iwgxfont/h/IwGxFontGlyph.h'
p988
(lp989
I1
ag981
asS'c:/marmalade/6.3/modules/iwgxfont/h/IwGxFontContainer.h'
p990
(lp991
I1
ag981
asS'c:/marmalade/6.3/modules/iwgxfont/h/IwGxFont.h'
p992
(lp993
I1
ag981
asS'c:/marmalade/6.3/modules/iwgxfont/h/IwGxFontTypes.h'
p994
(lp995
I1
ag981
assS'iwgeom'
p996
(dp997
S'c:/marmalade/6.3/modules/iwgeom/h/IwGeomQuat.h'
p998
(lp999
I1
a(dp1000
asS'c:/marmalade/6.3/modules/iwgeom/h/IwGeom.h'
p1001
(lp1002
I1
ag1000
asS'c:/marmalade/6.3/modules/iwgeom/h/IwGeomSphere.h'
p1003
(lp1004
I1
ag1000
asS'c:/marmalade/6.3/modules/iwgeom/h/IwGeomVec3.h'
p1005
(lp1006
I1
ag1000
asS'c:/marmalade/6.3/modules/iwgeom/h/IwGeomMat2D.h'
p1007
(lp1008
I1
ag1000
asS'c:/marmalade/6.3/modules/iwgeom/h/IwGeomVec2.h'
p1009
(lp1010
I1
ag1000
asS'c:/marmalade/6.3/modules/iwgeom/h/IwGeomMat.h'
p1011
(lp1012
I1
ag1000
asS'c:/marmalade/6.3/modules/iwgeom/h/IwGeomSQuat.h'
p1013
(lp1014
I1
ag1000
asS'c:/marmalade/6.3/modules/iwgeom/docs/iwgeom.config.txt'
p1015
(lp1016
I1
ag1000
asS'c:/marmalade/6.3/modules/iwgeom/h/IwGeomFIntersect.h'
p1017
(lp1018
I1
ag1000
asS'c:/marmalade/6.3/modules/iwgeom/h/IwGeomVec4.h'
p1019
(lp1020
I1
ag1000
asS'c:/marmalade/6.3/modules/iwgeom/h/IwGeomFBBox.h'
p1021
(lp1022
I1
ag1000
asS'c:/marmalade/6.3/modules/iwgeom/iwgeom.mkf'
p1023
(lp1024
I1
a(dp1025
asS'c:/marmalade/6.3/modules/iwgeom/h/IwGeomPlane.h'
p1026
(lp1027
I1
ag1000
asS'c:/marmalade/6.3/modules/iwgeom/h/IwGeomIntersect.h'
p1028
(lp1029
I1
ag1000
asS'c:/marmalade/6.3/modules/iwgeom/h/IwGeomFVec4.h'
p1030
(lp1031
I1
ag1000
asS'c:/marmalade/6.3/modules/iwgeom/h/IwGeomFMat2D.h'
p1032
(lp1033
I1
ag1000
asS'c:/marmalade/6.3/modules/iwgeom/h/IwGeomSVec4.h'
p1034
(lp1035
I1
ag1000
asS'c:/marmalade/6.3/modules/iwgeom/h/IwGeomCore.h'
p1036
(lp1037
I1
ag1000
asS'c:/marmalade/6.3/modules/iwgeom/h/IwGeomMenu.h'
p1038
(lp1039
I1
ag1000
asS'c:/marmalade/6.3/modules/iwgeom/h/IwGeomFQuat.h'
p1040
(lp1041
I1
ag1000
asS'c:/marmalade/6.3/modules/iwgeom/h/IwGeomSVec3.h'
p1042
(lp1043
I1
ag1000
asS'c:/marmalade/6.3/modules/iwgeom/h/IwGeomFMat.h'
p1044
(lp1045
I1
ag1000
asS'c:/marmalade/6.3/modules/iwgeom/h/IwGeomFVec3.h'
p1046
(lp1047
I1
ag1000
asS'c:/marmalade/6.3/modules/iwgeom/h/IwGeomSqrt.h'
p1048
(lp1049
I1
ag1000
asS'c:/marmalade/6.3/modules/iwgeom/h/IwGeomBBox.h'
p1050
(lp1051
I1
ag1000
asS'c:/marmalade/6.3/modules/iwgeom/h/IwGeomSVec2.h'
p1052
(lp1053
I1
ag1000
asS'c:/marmalade/6.3/modules/iwgeom/h/IwGeomLegacy.h'
p1054
(lp1055
I1
ag1000
asS'c:/marmalade/6.3/modules/iwgeom/h/IwGeomVec.h'
p1056
(lp1057
I1
ag1000
asS'c:/marmalade/6.3/modules/iwgeom/h/IwGeomFVec2.h'
p1058
(lp1059
I1
ag1000
asS'c:/marmalade/6.3/modules/iwgeom/h/IwGeomFPlane.h'
p1060
(lp1061
I1
ag1000
asS'c:/marmalade/6.3/modules/iwgeom/h/IwGeomFSphere.h'
p1062
(lp1063
I1
ag1000
assS'iwresmanager'
p1064
(dp1065
S'c:/marmalade/6.3/modules/iwresmanager/h/IwResGroup.h'
p1066
(lp1067
I1
a(dp1068
asS'c:/marmalade/6.3/modules/iwresmanager/iwresmanager.mkf'
p1069
(lp1070
I1
a(dp1071
asS'c:/marmalade/6.3/modules/iwresmanager/h/IwResHandlerImage.h'
p1072
(lp1073
I1
ag1068
asS'c:/marmalade/6.3/modules/iwresmanager/h/IwResManagerClass.h'
p1074
(lp1075
I1
ag1068
asS'c:/marmalade/6.3/modules/iwresmanager/h/IwResHandler.h'
p1076
(lp1077
I1
ag1068
asS'c:/marmalade/6.3/modules/iwresmanager/h/IwResHandlerITX.h'
p1078
(lp1079
I1
ag1068
asS'c:/marmalade/6.3/modules/iwresmanager/docs/iwresmanager.config.txt'
p1080
(lp1081
I1
ag1068
asS'c:/marmalade/6.3/modules/iwresmanager/h/IwResSerialise.h'
p1082
(lp1083
I1
ag1068
asS'c:/marmalade/6.3/modules/iwresmanager/h/IwResManager.h'
p1084
(lp1085
I1
ag1068
asS'c:/marmalade/6.3/modules/iwresmanager/h/IwResHandlerGROUP.h'
p1086
(lp1087
I1
ag1068
assS'iwgx'
p1088
(dp1089
S'c:/marmalade/6.3/modules/iwgx/h/IwGxMetrics.h'
p1090
(lp1091
I1
a(dp1092
asS'c:/marmalade/6.3/modules/iwgx/docs/iwgx.config.txt'
p1093
(lp1094
I1
ag1092
asS'c:/marmalade/6.3/modules/iwgx/h/IwGx.h'
p1095
(lp1096
I1
ag1092
asS'c:/marmalade/6.3/modules/iwgx/h/IwDebugPrim.h'
p1097
(lp1098
I1
ag1092
asS'c:/marmalade/6.3/modules/iwgx/h/IwClip.inl'
p1099
(lp1100
I1
ag1092
asS'c:/marmalade/6.3/modules/iwgx/docs/iwgx_public.defines.txt'
p1101
(lp1102
I1
ag1092
asS'c:/marmalade/6.3/modules/iwgx/h/IwGxState.h'
p1103
(lp1104
I1
ag1092
asS'c:/marmalade/6.3/modules/iwgx/h/IwGxError.h'
p1105
(lp1106
I1
ag1092
asS'c:/marmalade/6.3/modules/iwgx/h/IwMaterial.h'
p1107
(lp1108
I1
ag1092
asS'c:/marmalade/6.3/modules/iwgx/h/IwMatAnim.h'
p1109
(lp1110
I1
ag1092
asS'c:/marmalade/6.3/modules/iwgx/h/IwGxSurface.h'
p1111
(lp1112
I1
ag1092
asS'c:/marmalade/6.3/modules/iwgx/h/IwResHandlerMTL.h'
p1113
(lp1114
I1
ag1092
asS'c:/marmalade/6.3/modules/iwgx/h/IwTPage.h'
p1115
(lp1116
I1
ag1092
asS'c:/marmalade/6.3/modules/iwgx/h/IwFColour.h'
p1117
(lp1118
I1
ag1092
asS'c:/marmalade/6.3/modules/iwgx/h/IwColour.h'
p1119
(lp1120
I1
ag1092
asS'c:/marmalade/6.3/modules/iwgx/h/IwGxShaderTechnique.h'
p1121
(lp1122
I1
ag1092
asS'c:/marmalade/6.3/modules/iwgx/h/IwGxTypes.h'
p1123
(lp1124
I1
ag1092
asS'c:/marmalade/6.3/modules/iwgx/iwgx.mkf'
p1125
(lp1126
I1
a(dp1127
asS'c:/marmalade/6.3/modules/iwgx/h/IwGxFuncTable.h'
p1128
(lp1129
I1
ag1092
asS'c:/marmalade/6.3/modules/iwgx/h/IwGxStream.h'
p1130
(lp1131
I1
ag1092
asS'c:/marmalade/6.3/modules/iwgx/h/IwClip.h'
p1132
(lp1133
I1
ag1092
asS'c:/marmalade/6.3/modules/iwgx/h/IwGxPrint.h'
p1134
(lp1135
I1
ag1092
asS'c:/marmalade/6.3/modules/iwgx/h/IwGxTransformSW.h'
p1136
(lp1137
I1
ag1092
asS'c:/marmalade/6.3/modules/iwgx/h/IwGxDebug.h'
p1138
(lp1139
I1
ag1092
asS'c:/marmalade/6.3/modules/iwgx/h/IwTexture.h'
p1140
(lp1141
I1
ag1092
assS'iwutil'
p1142
(dp1143
S'c:/marmalade/6.3/modules/iwutil/h/IwOptimiseARM.h'
p1144
(lp1145
I1
a(dp1146
asS'c:/marmalade/6.3/modules/iwutil/h/IwDebug.h'
p1147
(lp1148
I1
ag1146
asS'c:/marmalade/6.3/modules/iwutil/h/IwFibre.h'
p1149
(lp1150
I1
ag1146
asS'c:/marmalade/6.3/modules/iwutil/h/IwTextParserITX.h'
p1151
(lp1152
I1
ag1146
asS'c:/marmalade/6.3/modules/iwutil/h/IwCore.h'
p1153
(lp1154
I1
ag1146
asS'c:/marmalade/6.3/modules/iwutil/h/IwFile.h'
p1155
(lp1156
I1
ag1146
asS'c:/marmalade/6.3/modules/iwutil/h/IwString.h'
p1157
(lp1158
I1
ag1146
asS'c:/marmalade/6.3/modules/iwutil/h/IwOptimiseSize.h'
p1159
(lp1160
I1
ag1146
asS'c:/marmalade/6.3/modules/iwutil/h/IwArray.h'
p1161
(lp1162
I1
ag1146
asS'c:/marmalade/6.3/modules/iwutil/h/IwRuntime.h'
p1163
(lp1164
I1
ag1146
asS'c:/marmalade/6.3/modules/iwutil/h/IwDivide.h'
p1165
(lp1166
I1
ag1146
asS'c:/marmalade/6.3/modules/iwutil/h/IwPath.h'
p1167
(lp1168
I1
ag1146
asS'c:/marmalade/6.3/modules/iwutil/h/IwUtilInitTerm.h'
p1169
(lp1170
I1
ag1146
asS'c:/marmalade/6.3/modules/iwutil/iwutil.mkf'
p1171
(lp1172
I1
a(dp1173
asS'c:/marmalade/6.3/modules/iwutil/h/IwMemManagerDL.h'
p1174
(lp1175
I1
ag1146
asS'c:/marmalade/6.3/modules/iwutil/h/IwMemory.h'
p1176
(lp1177
I1
ag1146
asS'c:/marmalade/6.3/modules/iwutil/h/IwChar.h'
p1178
(lp1179
I1
ag1146
asS'c:/marmalade/6.3/modules/iwutil/h/IwUtil.h'
p1180
(lp1181
I1
ag1146
asS'c:/marmalade/6.3/modules/iwutil/docs/iwutil.config.txt'
p1182
(lp1183
I1
ag1146
asS'c:/marmalade/6.3/modules/iwutil/h/IwSerialise.h'
p1184
(lp1185
I1
ag1146
asS'c:/marmalade/6.3/modules/iwutil/h/IwUncopyable.h'
p1186
(lp1187
I1
ag1146
asS'c:/marmalade/6.3/modules/iwutil/h/IwVariableBitField.h'
p1188
(lp1189
I1
ag1146
asS'c:/marmalade/6.3/modules/iwutil/h/IwOptimiseThumb.h'
p1190
(lp1191
I1
ag1146
asS'c:/marmalade/6.3/modules/iwutil/h/IwEvent.h'
p1192
(lp1193
I1
ag1146
asS'c:/marmalade/6.3/modules/iwutil/h/IwCopyingPtr.h'
p1194
(lp1195
I1
ag1146
asS'c:/marmalade/6.3/modules/iwutil/h/IwProfileMenu.h'
p1196
(lp1197
I1
ag1146
asS'c:/marmalade/6.3/modules/iwutil/h/IwMemBucket.h'
p1198
(lp1199
I1
ag1146
asS'c:/marmalade/6.3/modules/iwutil/h/IwTypes.h'
p1200
(lp1201
I1
ag1146
asS'c:/marmalade/6.3/modules/iwutil/h/IwDivTable.h'
p1202
(lp1203
I1
ag1146
asS'c:/marmalade/6.3/modules/iwutil/h/IwList.h'
p1204
(lp1205
I1
ag1146
asS'c:/marmalade/6.3/modules/iwutil/h/IwUTF8.h'
p1206
(lp1207
I1
ag1146
asS'c:/marmalade/6.3/modules/iwutil/h/IwMemBucketHelpers.h'
p1208
(lp1209
I1
ag1146
asS'c:/marmalade/6.3/modules/iwutil/h/IwRandom.h'
p1210
(lp1211
I1
ag1146
asS'c:/marmalade/6.3/modules/iwutil/h/IwClassFactory.h'
p1212
(lp1213
I1
ag1146
asS'c:/marmalade/6.3/modules/iwutil/h/IwMenu.h'
p1214
(lp1215
I1
ag1146
asS'c:/marmalade/6.3/modules/iwutil/h/IwBuffer.h'
p1216
(lp1217
I1
ag1146
asS'c:/marmalade/6.3/modules/iwutil/h/IwResource.h'
p1218
(lp1219
I1
ag1146
asS'c:/marmalade/6.3/modules/iwutil/h/IwHashString.h'
p1220
(lp1221
I1
ag1146
asS'c:/marmalade/6.3/modules/iwutil/h/IwImageHelper.h'
p1222
(lp1223
I1
ag1146
asS'c:/marmalade/6.3/modules/iwutil/h/IwTextParseable.h'
p1224
(lp1225
I1
ag1146
asS'c:/marmalade/6.3/modules/iwutil/h/IwManaged.h'
p1226
(lp1227
I1
ag1146
asS'c:/marmalade/6.3/modules/iwutil/h/IwManagedList.h'
p1228
(lp1229
I1
ag1146
asS'c:/marmalade/6.3/modules/iwutil/h/IwSingleton.h'
p1230
(lp1231
I1
ag1146
asS'c:/marmalade/6.3/modules/iwutil/h/IwAutoFile.h'
p1232
(lp1233
I1
ag1146
asS'c:/marmalade/6.3/modules/iwutil/h/IwImage.h'
p1234
(lp1235
I1
ag1146
asS'c:/marmalade/6.3/modules/iwutil/h/IwMath.h'
p1236
(lp1237
I1
ag1146
asS'c:/marmalade/6.3/modules/iwutil/h/IwAllocator.h'
p1238
(lp1239
I1
ag1146
asS'c:/marmalade/6.3/modules/iwutil/h/IwOptimiseSpeed.h'
p1240
(lp1241
I1
ag1146
asS'c:/marmalade/6.3/modules/iwutil/h/IwTextParser.h'
p1242
(lp1243
I1
ag1146
asS'c:/marmalade/6.3/modules/iwutil/h/IwKeymap.h'
p1244
(lp1245
I1
ag1146
asssS'(zlib)'
p1246
(dp1247
g861
(dp1248
S'c:/marmalade/6.3/modules/third_party/zlib/h/zlib.h'
p1249
(lp1250
I1
a(dp1251
asS'c:/marmalade/6.3/modules/third_party/zlib/h/zconf.h'
p1252
(lp1253
I1
ag1251
assS'c:/marmalade/6.3/modules/third_party/zlib/zlib.mkf'
p1254
(lp1255
I1
a(dp1256
asssS'files'
p1257
(dp1258
S'IwGxFontPreparedData.h'
p1259
g252
(cmkb_main
File
p1260
g254
Ntp1261
Rp1262
(dp1263
S'flags'
p1264
g981
sS'group'
p1265
(lp1266
S"'Marmalade Studio'"
p1267
ag974
asg278
g982
sbsS'iterator'
p1268
g252
(g1260
g254
Ntp1269
Rp1270
(dp1271
g1264
(dp1272
sg1265
(lp1273
S"'Marmalade System (S3E)'"
p1274
aS'stdc headers'
p1275
aS'c++'
p1276
asg278
S'c:/marmalade/6.3/s3e/h/std/c++/iterator'
p1277
sbsS'IwGeomPlane.h'
p1278
g252
(g1260
g254
Ntp1279
Rp1280
(dp1281
g1264
g1000
sg1265
(lp1282
S"'Marmalade Studio'"
p1283
ag996
asg278
g1026
sbsS's3e.h'
p1284
g252
(g1260
g254
Ntp1285
Rp1286
(dp1287
g1264
g1272
sg1265
(lp1288
g1274
asg278
S'c:/marmalade/6.3/s3e/h/s3e.h'
p1289
sbsS'errno.h'
p1290
g252
(g1260
g254
Ntp1291
Rp1292
(dp1293
g1264
g1272
sg1265
(lp1294
g1274
aS'stdc headers'
p1295
asg278
S'c:/marmalade/6.3/s3e/h/std/errno.h'
p1296
sbsS'IwSingleton.h'
p1297
g252
(g1260
g254
Ntp1298
Rp1299
(dp1300
g1264
g1146
sg1265
(lp1301
S"'Marmalade Studio'"
p1302
ag1142
asg278
g1230
sbsS'dlfcn.h'
p1303
g252
(g1260
g254
Ntp1304
Rp1305
(dp1306
g1264
g1272
sg1265
g1294
sg278
S'c:/marmalade/6.3/s3e/h/std/dlfcn.h'
p1307
sbsS'stdio_streambuf'
p1308
g252
(g1260
g254
Ntp1309
Rp1310
(dp1311
g1264
g1272
sg1265
g1273
sg278
S'c:/marmalade/6.3/s3e/h/std/c++/stdio_streambuf'
p1312
sbsS'sched.h'
p1313
g252
(g1260
g254
Ntp1314
Rp1315
(dp1316
g1264
g1272
sg1265
g1294
sg278
S'c:/marmalade/6.3/s3e/h/std/sched.h'
p1317
sbsS'IwGeomFMat2D.h'
p1318
g252
(g1260
g254
Ntp1319
Rp1320
(dp1321
g1264
g1000
sg1265
g1282
sg278
g1032
sbsS's3eExt.h'
p1322
g252
(g1260
g254
Ntp1323
Rp1324
(dp1325
g1264
g1272
sg1265
g1288
sg278
S'c:/marmalade/6.3/s3e/h/s3eExt.h'
p1326
sbsS'grp.h'
p1327
g252
(g1260
g254
Ntp1328
Rp1329
(dp1330
g1264
g1272
sg1265
g1294
sg278
S'c:/marmalade/6.3/s3e/h/std/grp.h'
p1331
sbsS'list'
p1332
g252
(g1260
g254
Ntp1333
Rp1334
(dp1335
g1264
g1272
sg1265
g1273
sg278
S'c:/marmalade/6.3/s3e/h/std/c++/list'
p1336
sbsS'istream'
p1337
g252
(g1260
g254
Ntp1338
Rp1339
(dp1340
g1264
g1272
sg1265
g1273
sg278
S'c:/marmalade/6.3/s3e/h/std/c++/istream'
p1341
sbsS'jpeglib.h'
p1342
g252
(g1260
g254
Ntp1343
Rp1344
(dp1345
g1264
g876
sg1265
(lp1346
g871
ag861
asg278
g897
sbsS'iw2d_public.defines.txt'
p1347
g252
(g1260
g254
Ntp1348
Rp1349
(dp1350
g1264
g969
sg1265
(lp1351
S"'Marmalade Studio'"
p1352
ag962
asg278
g967
sbsS'iostream.h'
p1353
g252
(g1260
g254
Ntp1354
Rp1355
(dp1356
g1264
g1272
sg1265
g1273
sg278
S'c:/marmalade/6.3/s3e/h/std/c++/iostream.h'
p1357
sbsS'string'
p1358
g252
(g1260
g254
Ntp1359
Rp1360
(dp1361
g1264
g1272
sg1265
g1273
sg278
S'c:/marmalade/6.3/s3e/h/std/c++/string'
p1362
sbsS'IwMemory.h'
p1363
g252
(g1260
g254
Ntp1364
Rp1365
(dp1366
g1264
g1146
sg1265
g1301
sg278
g1176
sbsS'IwGL.h'
p1367
g252
(g1260
g254
Ntp1368
Rp1369
(dp1370
g1264
g954
sg1265
(lp1371
S"'Marmalade Studio'"
p1372
ag950
asg278
g952
sbsS'iw2d.config.txt'
p1373
g252
(g1260
g254
Ntp1374
Rp1375
(dp1376
g1264
g969
sg1265
g1351
sg278
g972
sbsS'iomanip'
p1377
g252
(g1260
g254
Ntp1378
Rp1379
(dp1380
g1264
g1272
sg1265
g1273
sg278
S'c:/marmalade/6.3/s3e/h/std/c++/iomanip'
p1381
sbsS'iwgeom.mkf'
p1382
g252
(g1260
g254
Ntp1383
Rp1384
(dp1385
g1264
g1025
sg1265
g1282
sg278
g1023
sbsS'IwGxError.h'
p1386
g252
(g1260
g254
Ntp1387
Rp1388
(dp1389
g1264
g1092
sg1265
(lp1390
S"'Marmalade Studio'"
p1391
ag1088
asg278
g1105
sbsS'IwGeom.h'
p1392
g252
(g1260
g254
Ntp1393
Rp1394
(dp1395
g1264
g1000
sg1265
g1282
sg278
g1001
sbsS'IwGeomVec4.h'
p1396
g252
(g1260
g254
Ntp1397
Rp1398
(dp1399
g1264
g1000
sg1265
g1282
sg278
g1019
sbsS'dir.h'
p1400
g252
(g1260
g254
Ntp1401
Rp1402
(dp1403
g1264
g1272
sg1265
(lp1404
g1274
aS'stdc headers'
p1405
aS'sys'
p1406
asg278
S'c:/marmalade/6.3/s3e/h/std/sys/dir.h'
p1407
sbsS'locale.h'
p1408
g252
(g1260
g254
Ntp1409
Rp1410
(dp1411
g1264
g1272
sg1265
g1294
sg278
S'c:/marmalade/6.3/s3e/h/std/locale.h'
p1412
sbsS'vector'
p1413
g252
(g1260
g254
Ntp1414
Rp1415
(dp1416
g1264
g1272
sg1265
g1273
sg278
S'c:/marmalade/6.3/s3e/h/std/c++/vector'
p1417
sbsS'rendering.cpp'
p1418
g252
(g1260
g254
Ntp1419
Rp1420
(dp1421
g1264
g922
sg1265
(lp1422
g916
ag918
asg278
g935
sbsS'IwManaged.h'
p1423
g252
(g1260
g254
Ntp1424
Rp1425
(dp1426
g1264
g1146
sg1265
g1301
sg278
g1226
sbsS's3eCompass.h'
p1427
g252
(g1260
g254
Ntp1428
Rp1429
(dp1430
g1264
g1272
sg1265
g1288
sg278
S'c:/marmalade/6.3/s3e/h/s3eCompass.h'
p1431
sbsS'cderror.h'
p1432
g252
(g1260
g254
Ntp1433
Rp1434
(dp1435
g1264
g876
sg1265
g1346
sg278
g881
sbsS'climits'
p1436
g252
(g1260
g254
Ntp1437
Rp1438
(dp1439
g1264
g1272
sg1265
g1273
sg278
S'c:/marmalade/6.3/s3e/h/std/c++/climits'
p1440
sbsS's3eVibra.h'
p1441
g252
(g1260
g254
Ntp1442
Rp1443
(dp1444
g1264
g1272
sg1265
g1288
sg278
S'c:/marmalade/6.3/s3e/h/s3eVibra.h'
p1445
sbsS'jversion.h'
p1446
g252
(g1260
g254
Ntp1447
Rp1448
(dp1449
g1264
g876
sg1265
g1346
sg278
g889
sbsS'fnmatch.h'
p1450
g252
(g1260
g254
Ntp1451
Rp1452
(dp1453
g1264
g1272
sg1265
g1294
sg278
S'c:/marmalade/6.3/s3e/h/std/fnmatch.h'
p1454
sbsS'IwGxState.h'
p1455
g252
(g1260
g254
Ntp1456
Rp1457
(dp1458
g1264
g1092
sg1265
g1390
sg278
g1103
sbsS's3eAudio.h'
p1459
g252
(g1260
g254
Ntp1460
Rp1461
(dp1462
g1264
g1272
sg1265
g1288
sg278
S'c:/marmalade/6.3/s3e/h/s3eAudio.h'
p1463
sbsS's3eSurface.h'
p1464
g252
(g1260
g254
Ntp1465
Rp1466
(dp1467
g1264
g1272
sg1265
g1288
sg278
S'c:/marmalade/6.3/s3e/h/s3eSurface.h'
p1468
sbsS'new'
p1469
g252
(g1260
g254
Ntp1470
Rp1471
(dp1472
g1264
g1272
sg1265
g1273
sg278
S'c:/marmalade/6.3/s3e/h/std/c++/new'
p1473
sbsS's3eWindow.h'
p1474
g252
(g1260
g254
Ntp1475
Rp1476
(dp1477
g1264
g1272
sg1265
(lp1478
g1274
aS'Extensions'
p1479
asg278
S'c:/marmalade/6.3/s3e/h/ext/s3eWindow.h'
p1480
sbsS'IwBuffer.h'
p1481
g252
(g1260
g254
Ntp1482
Rp1483
(dp1484
g1264
g1146
sg1265
g1301
sg278
g1216
sbsS's3eOSExec.h'
p1485
g252
(g1260
g254
Ntp1486
Rp1487
(dp1488
g1264
g1272
sg1265
g1478
sg278
S'c:/marmalade/6.3/s3e/h/ext/s3eOSExec.h'
p1489
sbsS'IwGxTransformSW.h'
p1490
g252
(g1260
g254
Ntp1491
Rp1492
(dp1493
g1264
g1092
sg1265
g1390
sg278
g1136
sbsS'unistd.h'
p1494
g252
(g1260
g254
Ntp1495
Rp1496
(dp1497
g1264
g1272
sg1265
g1294
sg278
S'c:/marmalade/6.3/s3e/h/std/unistd.h'
p1498
sbsS'iwgxfont.config.txt'
p1499
g252
(g1260
g254
Ntp1500
Rp1501
(dp1502
g1264
g981
sg1265
g1266
sg278
g979
sbsS'gl2platform.h'
p1503
g252
(g1260
g254
Ntp1504
Rp1505
(dp1506
g1264
g1272
sg1265
(lp1507
g1274
aS'GL'
p1508
aS'GLES 2.0'
p1509
asg278
S'c:/marmalade/6.3/s3e/h/GLES2/gl2platform.h'
p1510
sbsS'IwResManagerClass.h'
p1511
g252
(g1260
g254
Ntp1512
Rp1513
(dp1514
g1264
g1068
sg1265
(lp1515
g948
ag1064
asg278
g1074
sbsS'queue'
p1516
g252
(g1260
g254
Ntp1517
Rp1518
(dp1519
g1264
g1272
sg1265
g1273
sg278
S'c:/marmalade/6.3/s3e/h/std/c++/queue'
p1520
sbsS'time_1.h'
p1521
g252
(g1260
g254
Ntp1522
Rp1523
(dp1524
g1264
g1272
sg1265
g1404
sg278
S'c:/marmalade/6.3/s3e/h/std/sys/time.h'
p1525
sbsS'Iw2D.h'
p1526
g252
(g1260
g254
Ntp1527
Rp1528
(dp1529
g1264
g969
sg1265
g1351
sg278
g970
sbsS'IwGeomVec2.h'
p1530
g252
(g1260
g254
Ntp1531
Rp1532
(dp1533
g1264
g1000
sg1265
g1282
sg278
g1009
sbsS's3eDevice.h'
p1534
g252
(g1260
g254
Ntp1535
Rp1536
(dp1537
g1264
g1272
sg1265
g1288
sg278
S'c:/marmalade/6.3/s3e/h/s3eDevice.h'
p1538
sbsS'malloc.h'
p1539
g252
(g1260
g254
Ntp1540
Rp1541
(dp1542
g1264
g1272
sg1265
g1294
sg278
S'c:/marmalade/6.3/s3e/h/std/malloc.h'
p1543
sbsS'stdarg.h'
p1544
g252
(g1260
g254
Ntp1545
Rp1546
(dp1547
g1264
g1272
sg1265
g1294
sg278
S'c:/marmalade/6.3/s3e/h/std/stdarg.h'
p1548
sbsS'IwGeomCore.h'
p1549
g252
(g1260
g254
Ntp1550
Rp1551
(dp1552
g1264
g1000
sg1265
g1282
sg278
g1036
sbsS'endian.h'
p1553
g252
(g1260
g254
Ntp1554
Rp1555
(dp1556
g1264
g1272
sg1265
g1294
sg278
S'c:/marmalade/6.3/s3e/h/std/endian.h'
p1557
sbsS'glob.h'
p1558
g252
(g1260
g254
Ntp1559
Rp1560
(dp1561
g1264
g1272
sg1265
g1294
sg278
S'c:/marmalade/6.3/s3e/h/std/glob.h'
p1562
sbsS'fstream'
p1563
g252
(g1260
g254
Ntp1564
Rp1565
(dp1566
g1264
g1272
sg1265
g1273
sg278
S'c:/marmalade/6.3/s3e/h/std/c++/fstream'
p1567
sbsS's3eCamera.h'
p1568
g252
(g1260
g254
Ntp1569
Rp1570
(dp1571
g1264
g1272
sg1265
g1288
sg278
S'c:/marmalade/6.3/s3e/h/s3eCamera.h'
p1572
sbsS'jconfig.h'
p1573
g252
(g1260
g254
Ntp1574
Rp1575
(dp1576
g1264
g876
sg1265
g1346
sg278
g879
sbsS'memory'
p1577
g252
(g1260
g254
Ntp1578
Rp1579
(dp1580
g1264
g1272
sg1265
g1273
sg278
S'c:/marmalade/6.3/s3e/h/std/c++/memory'
p1581
sbsS'egl.h'
p1582
g252
(g1260
g254
Ntp1583
Rp1584
(dp1585
g1264
g1272
sg1265
(lp1586
g1274
aS'GL'
p1587
aS'EGL'
p1588
asg278
S'c:/marmalade/6.3/s3e/h/EGL/egl.h'
p1589
sbsS'IwClip.inl'
p1590
g252
(g1260
g254
Ntp1591
Rp1592
(dp1593
g1264
g1092
sg1265
g1390
sg278
g1099
sbsS'IwMemManagerDL.h'
p1594
g252
(g1260
g254
Ntp1595
Rp1596
(dp1597
g1264
g1146
sg1265
g1301
sg278
g1174
sbsS'deque'
p1598
g252
(g1260
g254
Ntp1599
Rp1600
(dp1601
g1264
g1272
sg1265
g1273
sg278
S'c:/marmalade/6.3/s3e/h/std/c++/deque'
p1602
sbsS'IwString.h'
p1603
g252
(g1260
g254
Ntp1604
Rp1605
(dp1606
g1264
g1146
sg1265
g1301
sg278
g1157
sbsS'cwchar'
p1607
g252
(g1260
g254
Ntp1608
Rp1609
(dp1610
g1264
g1272
sg1265
g1273
sg278
S'c:/marmalade/6.3/s3e/h/std/c++/cwchar'
p1611
sbsS'iwutil.mkf'
p1612
g252
(g1260
g254
Ntp1613
Rp1614
(dp1615
g1264
g1173
sg1265
g1301
sg278
g1171
sbsS'csignal'
p1616
g252
(g1260
g254
Ntp1617
Rp1618
(dp1619
g1264
g1272
sg1265
g1273
sg278
S'c:/marmalade/6.3/s3e/h/std/c++/csignal'
p1620
sbsS'float.h'
p1621
g252
(g1260
g254
Ntp1622
Rp1623
(dp1624
g1264
g1272
sg1265
g1294
sg278
S'c:/marmalade/6.3/s3e/h/std/float.h'
p1625
sbsS'pthread_alloc'
p1626
g252
(g1260
g254
Ntp1627
Rp1628
(dp1629
g1264
g1272
sg1265
g1273
sg278
S'c:/marmalade/6.3/s3e/h/std/c++/pthread_alloc'
p1630
sbsS'getopt.h'
p1631
g252
(g1260
g254
Ntp1632
Rp1633
(dp1634
g1264
g1272
sg1265
g1294
sg278
S'c:/marmalade/6.3/s3e/h/std/getopt.h'
p1635
sbsS'IwOptimiseARM.h'
p1636
g252
(g1260
g254
Ntp1637
Rp1638
(dp1639
g1264
g1146
sg1265
g1301
sg278
g1144
sbsS'times.h'
p1640
g252
(g1260
g254
Ntp1641
Rp1642
(dp1643
g1264
g1272
sg1265
g1404
sg278
S'c:/marmalade/6.3/s3e/h/std/sys/times.h'
p1644
sbsS'IwGeomFSphere.h'
p1645
g252
(g1260
g254
Ntp1646
Rp1647
(dp1648
g1264
g1000
sg1265
g1282
sg278
g1062
sbsS'game.h'
p1649
g252
(g1260
g254
Ntp1650
Rp1651
(dp1652
g1264
g922
sg1265
g1422
sg278
g933
sbsS'functional'
p1653
g252
(g1260
g254
Ntp1654
Rp1655
(dp1656
g1264
g1272
sg1265
g1273
sg278
S'c:/marmalade/6.3/s3e/h/std/c++/functional'
p1657
sbsS'IwTypes.h'
p1658
g252
(g1260
g254
Ntp1659
Rp1660
(dp1661
g1264
g1146
sg1265
g1301
sg278
g1200
sbsS'IwGxMetrics.h'
p1662
g252
(g1260
g254
Ntp1663
Rp1664
(dp1665
g1264
g1092
sg1265
g1390
sg278
g1090
sbsS's3eCompression.h'
p1666
g252
(g1260
g254
Ntp1667
Rp1668
(dp1669
g1264
g1272
sg1265
g1288
sg278
S'c:/marmalade/6.3/s3e/h/s3eCompression.h'
p1670
sbsS'langinfo.h'
p1671
g252
(g1260
g254
Ntp1672
Rp1673
(dp1674
g1264
g1272
sg1265
g1294
sg278
S'c:/marmalade/6.3/s3e/h/std/langinfo.h'
p1675
sbsS's3edebugHeap.h'
p1676
g252
(g1260
g254
Ntp1677
Rp1678
(dp1679
g1264
g1272
sg1265
g1478
sg278
S'c:/marmalade/6.3/s3e/h/ext/s3edebugHeap.h'
p1680
sbsS'AirplayVersion.h'
p1681
g252
(g1260
g254
Ntp1682
Rp1683
(dp1684
g1264
g1272
sg1265
g1288
sg278
S'c:/marmalade/6.3/s3e/h/AirplayVersion.h'
p1685
sbsS'gl2extimg.h'
p1686
g252
(g1260
g254
Ntp1687
Rp1688
(dp1689
g1264
g1272
sg1265
g1507
sg278
S'c:/marmalade/6.3/s3e/h/GLES2/gl2extimg.h'
p1690
sbsS'app.config.txt'
p1691
g252
(g1260
g254
Ntp1692
Rp1693
(dp1694
g1264
(dp1695
sg1265
g4
sg278
S'c:/Users/Pietro/Documents/GitHub/Patriot-Missile-Defense/data/app.config.txt'
p1696
sbsS'IwGeomSqrt.h'
p1697
g252
(g1260
g254
Ntp1698
Rp1699
(dp1700
g1264
g1000
sg1265
g1282
sg278
g1048
sbsS'tiniconv_int.h'
p1701
g252
(g1260
g254
Ntp1702
Rp1703
(dp1704
g1264
g910
sg1265
(lp1705
g906
asg278
g911
sbsS'syslog.h'
p1706
g252
(g1260
g254
Ntp1707
Rp1708
(dp1709
g1264
g1272
sg1265
g1294
sg278
S'c:/marmalade/6.3/s3e/h/std/syslog.h'
p1710
sbsS'IwGxFontTypes.h'
p1711
g252
(g1260
g254
Ntp1712
Rp1713
(dp1714
g1264
g981
sg1265
g1266
sg278
g994
sbsS'IwGeomFIntersect.h'
p1715
g252
(g1260
g254
Ntp1716
Rp1717
(dp1718
g1264
g1000
sg1265
g1282
sg278
g1017
sbsS'hash_map'
p1719
g252
(g1260
g254
Ntp1720
Rp1721
(dp1722
g1264
g1272
sg1265
g1273
sg278
S'c:/marmalade/6.3/s3e/h/std/c++/hash_map'
p1723
sbsS's3e.mkf'
p1724
g252
(g1260
g254
Ntp1725
Rp1726
(dp1727
g1264
(dp1728
sg1265
g1288
sg278
S'c:/marmalade/6.3/s3e/s3e.mkf'
p1729
sbsS's3eOSReadString.h'
p1730
g252
(g1260
g254
Ntp1731
Rp1732
(dp1733
g1264
g1272
sg1265
g1478
sg278
S'c:/marmalade/6.3/s3e/h/ext/s3eOSReadString.h'
p1734
sbsS'map'
p1735
g252
(g1260
g254
Ntp1736
Rp1737
(dp1738
g1264
g1272
sg1265
g1273
sg278
S'c:/marmalade/6.3/s3e/h/std/c++/map'
p1739
sbsS'IwOptimiseSpeed.h'
p1740
g252
(g1260
g254
Ntp1741
Rp1742
(dp1743
g1264
g1146
sg1265
g1301
sg278
g1240
sbsS'localise.h'
p1744
g252
(g1260
g254
Ntp1745
Rp1746
(dp1747
g1264
g922
sg1265
g1422
sg278
g923
sbsS'msl_string.h'
p1748
g252
(g1260
g254
Ntp1749
Rp1750
(dp1751
g1264
g1272
sg1265
g1273
sg278
S'c:/marmalade/6.3/s3e/h/std/c++/msl_string.h'
p1752
sbsS'select.h'
p1753
g252
(g1260
g254
Ntp1754
Rp1755
(dp1756
g1264
g1272
sg1265
g1404
sg278
S'c:/marmalade/6.3/s3e/h/std/sys/select.h'
p1757
sbsS'zlib.mkf'
p1758
g252
(g1260
g254
Ntp1759
Rp1760
(dp1761
g1264
g1256
sg1265
(lp1762
g1246
asg278
g1254
sbsS'signal.h'
p1763
g252
(g1260
g254
Ntp1764
Rp1765
(dp1766
g1264
g1272
sg1265
g1294
sg278
S'c:/marmalade/6.3/s3e/h/std/signal.h'
p1767
sbsS'sigcontext.h'
p1768
g252
(g1260
g254
Ntp1769
Rp1770
(dp1771
g1264
g1272
sg1265
g1294
sg278
S'c:/marmalade/6.3/s3e/h/std/sigcontext.h'
p1772
sbsS'libpng.mkf'
p1773
g252
(g1260
g254
Ntp1774
Rp1775
(dp1776
g1264
g870
sg1265
(lp1777
g859
asg278
g868
sbsS'effects.cpp'
p1778
g252
(g1260
g254
Ntp1779
Rp1780
(dp1781
g1264
g922
sg1265
g1422
sg278
g925
sbsS's3eClipboard.h'
p1782
g252
(g1260
g254
Ntp1783
Rp1784
(dp1785
g1264
g1272
sg1265
g1288
sg278
S'c:/marmalade/6.3/s3e/h/s3eClipboard.h'
p1786
sbsS'IwGxFuncTable.h'
p1787
g252
(g1260
g254
Ntp1788
Rp1789
(dp1790
g1264
g1092
sg1265
g1390
sg278
g1128
sbsS'IwResHandlerGROUP.h'
p1791
g252
(g1260
g254
Ntp1792
Rp1793
(dp1794
g1264
g1068
sg1265
g1515
sg278
g1086
sbsS's3eDebug.h'
p1795
g252
(g1260
g254
Ntp1796
Rp1797
(dp1798
g1264
g1272
sg1265
g1288
sg278
S'c:/marmalade/6.3/s3e/h/s3eDebug.h'
p1799
sbsS'socket.h'
p1800
g252
(g1260
g254
Ntp1801
Rp1802
(dp1803
g1264
g1272
sg1265
g1404
sg278
S'c:/marmalade/6.3/s3e/h/std/sys/socket.h'
p1804
sbsS'glext.h'
p1805
g252
(g1260
g254
Ntp1806
Rp1807
(dp1808
g1264
g1272
sg1265
(lp1809
g1274
aS'GL'
p1810
aS'GLES 1.x'
p1811
asg278
S'c:/marmalade/6.3/s3e/h/GLES/glext.h'
p1812
sbsS'typeinfo.h'
p1813
g252
(g1260
g254
Ntp1814
Rp1815
(dp1816
g1264
g1272
sg1265
g1273
sg278
S'c:/marmalade/6.3/s3e/h/std/c++/typeinfo.h'
p1817
sbsS'typeinfo'
p1818
g252
(g1260
g254
Ntp1819
Rp1820
(dp1821
g1264
g1272
sg1265
g1273
sg278
S'c:/marmalade/6.3/s3e/h/std/c++/typeinfo'
p1822
sbsS'fstream.h'
p1823
g252
(g1260
g254
Ntp1824
Rp1825
(dp1826
g1264
g1272
sg1265
g1273
sg278
S'c:/marmalade/6.3/s3e/h/std/c++/fstream.h'
p1827
sbsS's3ePointer.h'
p1828
g252
(g1260
g254
Ntp1829
Rp1830
(dp1831
g1264
g1272
sg1265
g1288
sg278
S'c:/marmalade/6.3/s3e/h/s3ePointer.h'
p1832
sbsS'iw2d.mkf'
p1833
g252
(g1260
g254
Ntp1834
Rp1835
(dp1836
g1264
g966
sg1265
g1351
sg278
g964
sbsS's3eGL.h'
p1837
g252
(g1260
g254
Ntp1838
Rp1839
(dp1840
g1264
g1272
sg1265
g1288
sg278
S'c:/marmalade/6.3/s3e/h/s3eGL.h'
p1841
sbsS'IwGeomFVec2.h'
p1842
g252
(g1260
g254
Ntp1843
Rp1844
(dp1845
g1264
g1000
sg1265
g1282
sg278
g1058
sbsS'IwGeomSVec4.h'
p1846
g252
(g1260
g254
Ntp1847
Rp1848
(dp1849
g1264
g1000
sg1265
g1282
sg278
g1034
sbsS'resources.group'
p1850
g252
(g1260
g254
Ntp1851
Rp1852
(dp1853
g1264
g922
sg1265
(lp1854
g916
ag944
asg278
g946
sbsS'IwMatAnim.h'
p1855
g252
(g1260
g254
Ntp1856
Rp1857
(dp1858
g1264
g1092
sg1265
g1390
sg278
g1109
sbsS'IwGeomFVec4.h'
p1859
g252
(g1260
g254
Ntp1860
Rp1861
(dp1862
g1264
g1000
sg1265
g1282
sg278
g1030
sbsS'IwGx.h'
p1863
g252
(g1260
g254
Ntp1864
Rp1865
(dp1866
g1264
g1092
sg1265
g1390
sg278
g1095
sbsS'valarray'
p1867
g252
(g1260
g254
Ntp1868
Rp1869
(dp1870
g1264
g1272
sg1265
g1273
sg278
S'c:/marmalade/6.3/s3e/h/std/c++/valarray'
p1871
sbsS'iosfwd'
p1872
g252
(g1260
g254
Ntp1873
Rp1874
(dp1875
g1264
g1272
sg1265
g1273
sg278
S'c:/marmalade/6.3/s3e/h/std/c++/iosfwd'
p1876
sbsS'gl2.h'
p1877
g252
(g1260
g254
Ntp1878
Rp1879
(dp1880
g1264
g1272
sg1265
g1507
sg278
S'c:/marmalade/6.3/s3e/h/GLES2/gl2.h'
p1881
sbsS'IwManagedList.h'
p1882
g252
(g1260
g254
Ntp1883
Rp1884
(dp1885
g1264
g1146
sg1265
g1301
sg278
g1228
sbsS'stdiostream.h'
p1886
g252
(g1260
g254
Ntp1887
Rp1888
(dp1889
g1264
g1272
sg1265
g1273
sg278
S'c:/marmalade/6.3/s3e/h/std/c++/stdiostream.h'
p1890
sbsS'mem.h'
p1891
g252
(g1260
g254
Ntp1892
Rp1893
(dp1894
g1264
g1272
sg1265
g1273
sg278
S'c:/marmalade/6.3/s3e/h/std/c++/mem.h'
p1895
sbsS'jerror.h'
p1896
g252
(g1260
g254
Ntp1897
Rp1898
(dp1899
g1264
g876
sg1265
g1346
sg278
g887
sbsS'zconf.h'
p1900
g252
(g1260
g254
Ntp1901
Rp1902
(dp1903
g1264
g1251
sg1265
(lp1904
g1246
ag861
asg278
g1252
sbsS's3e.config.txt'
p1905
g252
(g1260
g254
Ntp1906
Rp1907
(dp1908
g1264
g1272
sg1265
g1288
sg278
S'c:/marmalade/6.3/s3e/s3e.config.txt'
p1909
sbsS'numeric'
p1910
g252
(g1260
g254
Ntp1911
Rp1912
(dp1913
g1264
g1272
sg1265
g1273
sg278
S'c:/marmalade/6.3/s3e/h/std/c++/numeric'
p1914
sbsS'utime.h'
p1915
g252
(g1260
g254
Ntp1916
Rp1917
(dp1918
g1264
g1272
sg1265
g1294
sg278
S'c:/marmalade/6.3/s3e/h/std/utime.h'
p1919
sbsS'jdhuff.h'
p1920
g252
(g1260
g254
Ntp1921
Rp1922
(dp1923
g1264
g876
sg1265
g1346
sg278
g899
sbsS'IwGxStream.h'
p1924
g252
(g1260
g254
Ntp1925
Rp1926
(dp1927
g1264
g1092
sg1265
g1390
sg278
g1130
sbsS'IwImage.h'
p1928
g252
(g1260
g254
Ntp1929
Rp1930
(dp1931
g1264
g1146
sg1265
g1301
sg278
g1234
sbsS's3eImagePicker.h'
p1932
g252
(g1260
g254
Ntp1933
Rp1934
(dp1935
g1264
g1272
sg1265
g1478
sg278
S'c:/marmalade/6.3/s3e/h/ext/s3eImagePicker.h'
p1936
sbsS'IwTextParserITX.h'
p1937
g252
(g1260
g254
Ntp1938
Rp1939
(dp1940
g1264
g1146
sg1265
g1301
sg278
g1151
sbsS'stdlib.h'
p1941
g252
(g1260
g254
Ntp1942
Rp1943
(dp1944
g1264
g1272
sg1265
g1294
sg278
S'c:/marmalade/6.3/s3e/h/std/stdlib.h'
p1945
sbsS'IwCopyingPtr.h'
p1946
g252
(g1260
g254
Ntp1947
Rp1948
(dp1949
g1264
g1146
sg1265
g1301
sg278
g1194
sbsS'iostream'
p1950
g252
(g1260
g254
Ntp1951
Rp1952
(dp1953
g1264
g1272
sg1265
g1273
sg278
S'c:/marmalade/6.3/s3e/h/std/c++/iostream'
p1954
sbsS'png.h'
p1955
g252
(g1260
g254
Ntp1956
Rp1957
(dp1958
g1264
g865
sg1265
(lp1959
g859
ag861
asg278
g863
sbsS'stddef.h'
p1960
g252
(g1260
g254
Ntp1961
Rp1962
(dp1963
g1264
g1272
sg1265
g1294
sg278
S'c:/marmalade/6.3/s3e/h/std/stddef.h'
p1964
sbsS'setjmp_win32.h'
p1965
g252
(g1260
g254
Ntp1966
Rp1967
(dp1968
g1264
g1272
sg1265
g1294
sg278
S'c:/marmalade/6.3/s3e/h/std/setjmp_win32.h'
p1969
sbsS'IwGxPrint.h'
p1970
g252
(g1260
g254
Ntp1971
Rp1972
(dp1973
g1264
g1092
sg1265
g1390
sg278
g1134
sbsS'IwGeomSVec2.h'
p1974
g252
(g1260
g254
Ntp1975
Rp1976
(dp1977
g1264
g1000
sg1265
g1282
sg278
g1052
sbsS'streambuf.h'
p1978
g252
(g1260
g254
Ntp1979
Rp1980
(dp1981
g1264
g1272
sg1265
g1273
sg278
S'c:/marmalade/6.3/s3e/h/std/c++/streambuf.h'
p1982
sbsS'IwGeomFPlane.h'
p1983
g252
(g1260
g254
Ntp1984
Rp1985
(dp1986
g1264
g1000
sg1265
g1282
sg278
g1060
sbsS'wchar.h'
p1987
g252
(g1260
g254
Ntp1988
Rp1989
(dp1990
g1264
g1272
sg1265
g1294
sg278
S'c:/marmalade/6.3/s3e/h/std/wchar.h'
p1991
sbsS's3eCameraCapture.h'
p1992
g252
(g1260
g254
Ntp1993
Rp1994
(dp1995
g1264
g1272
sg1265
g1478
sg278
S'c:/marmalade/6.3/s3e/h/ext/s3eCameraCapture.h'
p1996
sbsS'eglext.h'
p1997
g252
(g1260
g254
Ntp1998
Rp1999
(dp2000
g1264
g1272
sg1265
g1586
sg278
S'c:/marmalade/6.3/s3e/h/EGL/eglext.h'
p2001
sbsS'IwResHandlerImage.h'
p2002
g252
(g1260
g254
Ntp2003
Rp2004
(dp2005
g1264
g1068
sg1265
g1515
sg278
g1072
sbsS'strstream.h'
p2006
g252
(g1260
g254
Ntp2007
Rp2008
(dp2009
g1264
g1272
sg1265
g1273
sg278
S'c:/marmalade/6.3/s3e/h/std/c++/strstream.h'
p2010
sbsS'tiniconv.h'
p2011
g252
(g1260
g254
Ntp2012
Rp2013
(dp2014
g1264
g910
sg1265
g1705
sg278
g908
sbsS'IwGLExt.h'
p2015
g252
(g1260
g254
Ntp2016
Rp2017
(dp2018
g1264
g954
sg1265
g1371
sg278
g960
sbsS'app.icf'
p2019
g252
(g1260
g254
Ntp2020
Rp2021
(dp2022
g1264
(dp2023
sg1265
g4
sg278
S'c:/Users/Pietro/Documents/GitHub/Patriot-Missile-Defense/data/app.icf'
p2024
sbsS'IwClassFactory.h'
p2025
g252
(g1260
g254
Ntp2026
Rp2027
(dp2028
g1264
g1146
sg1265
g1301
sg278
g1212
sbsS'file.h'
p2029
g252
(g1260
g254
Ntp2030
Rp2031
(dp2032
g1264
g1272
sg1265
g1404
sg278
S'c:/marmalade/6.3/s3e/h/std/sys/file.h'
p2033
sbsS'cstring'
p2034
g252
(g1260
g254
Ntp2035
Rp2036
(dp2037
g1264
g1272
sg1265
g1273
sg278
S'c:/marmalade/6.3/s3e/h/std/c++/cstring'
p2038
sbsS'iwutil.config.txt'
p2039
g252
(g1260
g254
Ntp2040
Rp2041
(dp2042
g1264
g1146
sg1265
g1301
sg278
g1182
sbsS's3eSMS.h'
p2043
g252
(g1260
g254
Ntp2044
Rp2045
(dp2046
g1264
g1272
sg1265
g1478
sg278
S'c:/marmalade/6.3/s3e/h/ext/s3eSMS.h'
p2047
sbsS'limits.h'
p2048
g252
(g1260
g254
Ntp2049
Rp2050
(dp2051
g1264
g1272
sg1265
g1294
sg278
S'c:/marmalade/6.3/s3e/h/std/limits.h'
p2052
sbsS'iwgl.config.txt'
p2053
g252
(g1260
g254
Ntp2054
Rp2055
(dp2056
g1264
g954
sg1265
g1371
sg278
g958
sbsS'iwgx_public.defines.txt'
p2057
g252
(g1260
g254
Ntp2058
Rp2059
(dp2060
g1264
g1092
sg1265
g1390
sg278
g1101
sbsS'IwMaterial.h'
p2061
g252
(g1260
g254
Ntp2062
Rp2063
(dp2064
g1264
g1092
sg1265
g1390
sg278
g1107
sbsS'IwGxSurface.h'
p2065
g252
(g1260
g254
Ntp2066
Rp2067
(dp2068
g1264
g1092
sg1265
g1390
sg278
g1111
sbsS's3eSocket.h'
p2069
g252
(g1260
g254
Ntp2070
Rp2071
(dp2072
g1264
g1272
sg1265
g1288
sg278
S'c:/marmalade/6.3/s3e/h/s3eSocket.h'
p2073
sbsS'IwAutoFile.h'
p2074
g252
(g1260
g254
Ntp2075
Rp2076
(dp2077
g1264
g1146
sg1265
g1301
sg278
g1232
sbsS'ipc.h'
p2078
g252
(g1260
g254
Ntp2079
Rp2080
(dp2081
g1264
g1272
sg1265
g1404
sg278
S'c:/marmalade/6.3/s3e/h/std/sys/ipc.h'
p2082
sbsS'poll_1.h'
p2083
g252
(g1260
g254
Ntp2084
Rp2085
(dp2086
g1264
g1272
sg1265
g1404
sg278
S'c:/marmalade/6.3/s3e/h/std/sys/poll.h'
p2087
sbsS's3eThread.h'
p2088
g252
(g1260
g254
Ntp2089
Rp2090
(dp2091
g1264
g1272
sg1265
g1288
sg278
S'c:/marmalade/6.3/s3e/h/s3eThread.h'
p2092
sbsS'ucontext.h'
p2093
g252
(g1260
g254
Ntp2094
Rp2095
(dp2096
g1264
g1272
sg1265
g1294
sg278
S'c:/marmalade/6.3/s3e/h/std/ucontext.h'
p2097
sbsS'time.h'
p2098
g252
(g1260
g254
Ntp2099
Rp2100
(dp2101
g1264
g1272
sg1265
g1294
sg278
S'c:/marmalade/6.3/s3e/h/std/time.h'
p2102
sbsS'jchuff.h'
p2103
g252
(g1260
g254
Ntp2104
Rp2105
(dp2106
g1264
g876
sg1265
g1346
sg278
g893
sbsS's3eSoundRecord.h'
p2107
g252
(g1260
g254
Ntp2108
Rp2109
(dp2110
g1264
g1272
sg1265
g1288
sg278
S'c:/marmalade/6.3/s3e/h/s3eSoundRecord.h'
p2111
sbsS'IwFibre.h'
p2112
g252
(g1260
g254
Ntp2113
Rp2114
(dp2115
g1264
g1146
sg1265
g1301
sg278
g1149
sbsS's3eVersion.h'
p2116
g252
(g1260
g254
Ntp2117
Rp2118
(dp2119
g1264
g1272
sg1265
g1288
sg278
S'c:/marmalade/6.3/s3e/h/s3eVersion.h'
p2120
sbsS'IwGxFontGlyph.h'
p2121
g252
(g1260
g254
Ntp2122
Rp2123
(dp2124
g1264
g981
sg1265
g1266
sg278
g988
sbsS's3eTypes.h'
p2125
g252
(g1260
g254
Ntp2126
Rp2127
(dp2128
g1264
g1272
sg1265
g1288
sg278
S'c:/marmalade/6.3/s3e/h/s3eTypes.h'
p2129
sbsS'signal_2.h'
p2130
g252
(g1260
g254
Ntp2131
Rp2132
(dp2133
g1264
g1272
sg1265
g1273
sg278
S'c:/marmalade/6.3/s3e/h/std/c++/signal.h'
p2134
sbsS'termios.h'
p2135
g252
(g1260
g254
Ntp2136
Rp2137
(dp2138
g1264
g1272
sg1265
g1294
sg278
S'c:/marmalade/6.3/s3e/h/std/termios.h'
p2139
sbsS'slist'
p2140
g252
(g1260
g254
Ntp2141
Rp2142
(dp2143
g1264
g1272
sg1265
g1273
sg278
S'c:/marmalade/6.3/s3e/h/std/c++/slist'
p2144
sbsS'cstdlib'
p2145
g252
(g1260
g254
Ntp2146
Rp2147
(dp2148
g1264
g1272
sg1265
g1273
sg278
S'c:/marmalade/6.3/s3e/h/std/c++/cstdlib'
p2149
sbsS's3eLocation.h'
p2150
g252
(g1260
g254
Ntp2151
Rp2152
(dp2153
g1264
g1272
sg1265
g1288
sg278
S'c:/marmalade/6.3/s3e/h/s3eLocation.h'
p2154
sbsS'IwMemBucketHelpers.h'
p2155
g252
(g1260
g254
Ntp2156
Rp2157
(dp2158
g1264
g1146
sg1265
g1301
sg278
g1208
sbsS's3eHash.h'
p2159
g252
(g1260
g254
Ntp2160
Rp2161
(dp2162
g1264
g1272
sg1265
g1288
sg278
S'c:/marmalade/6.3/s3e/h/s3eHash.h'
p2163
sbsS'IwGeomFMat.h'
p2164
g252
(g1260
g254
Ntp2165
Rp2166
(dp2167
g1264
g1000
sg1265
g1282
sg278
g1044
sbsS'type_traits.h'
p2168
g252
(g1260
g254
Ntp2169
Rp2170
(dp2171
g1264
g1272
sg1265
g1273
sg278
S'c:/marmalade/6.3/s3e/h/std/c++/type_traits.h'
p2172
sbsS'IwMenu.h'
p2173
g252
(g1260
g254
Ntp2174
Rp2175
(dp2176
g1264
g1146
sg1265
g1301
sg278
g1214
sbsS'IwResHandlerITX.h'
p2177
g252
(g1260
g254
Ntp2178
Rp2179
(dp2180
g1264
g1068
sg1265
g1515
sg278
g1078
sbsS'IwArray.h'
p2181
g252
(g1260
g254
Ntp2182
Rp2183
(dp2184
g1264
g1146
sg1265
g1301
sg278
g1161
sbsS'IwUTF8.h'
p2185
g252
(g1260
g254
Ntp2186
Rp2187
(dp2188
g1264
g1146
sg1265
g1301
sg278
g1206
sbsS'math_rvct.h'
p2189
g252
(g1260
g254
Ntp2190
Rp2191
(dp2192
g1264
g1272
sg1265
g1294
sg278
S'c:/marmalade/6.3/s3e/h/std/math_rvct.h'
p2193
sbsS'IwUtil.h'
p2194
g252
(g1260
g254
Ntp2195
Rp2196
(dp2197
g1264
g1146
sg1265
g1301
sg278
g1180
sbsS'IwGeomVec3.h'
p2198
g252
(g1260
g254
Ntp2199
Rp2200
(dp2201
g1264
g1000
sg1265
g1282
sg278
g1005
sbsS'wctype.h'
p2202
g252
(g1260
g254
Ntp2203
Rp2204
(dp2205
g1264
g1272
sg1265
g1294
sg278
S'c:/marmalade/6.3/s3e/h/std/wctype.h'
p2206
sbsS'cstddef'
p2207
g252
(g1260
g254
Ntp2208
Rp2209
(dp2210
g1264
g1272
sg1265
g1273
sg278
S'c:/marmalade/6.3/s3e/h/std/c++/cstddef'
p2211
sbsS'assert.h'
p2212
g252
(g1260
g254
Ntp2213
Rp2214
(dp2215
g1264
g1272
sg1265
g1294
sg278
S'c:/marmalade/6.3/s3e/h/std/assert.h'
p2216
sbsS'mman.h'
p2217
g252
(g1260
g254
Ntp2218
Rp2219
(dp2220
g1264
g1272
sg1265
g1404
sg278
S'c:/marmalade/6.3/s3e/h/std/sys/mman.h'
p2221
sbsS'IwRandom.h'
p2222
g252
(g1260
g254
Ntp2223
Rp2224
(dp2225
g1264
g1146
sg1265
g1301
sg278
g1210
sbsS'libgen.h'
p2226
g252
(g1260
g254
Ntp2227
Rp2228
(dp2229
g1264
g1272
sg1265
g1294
sg278
S'c:/marmalade/6.3/s3e/h/std/libgen.h'
p2230
sbsS'utsname.h'
p2231
g252
(g1260
g254
Ntp2232
Rp2233
(dp2234
g1264
g1272
sg1265
g1404
sg278
S'c:/marmalade/6.3/s3e/h/std/sys/utsname.h'
p2235
sbsS'wait.h'
p2236
g252
(g1260
g254
Ntp2237
Rp2238
(dp2239
g1264
g1272
sg1265
g1404
sg278
S'c:/marmalade/6.3/s3e/h/std/sys/wait.h'
p2240
sbsS'param.h'
p2241
g252
(g1260
g254
Ntp2242
Rp2243
(dp2244
g1264
g1272
sg1265
g1404
sg278
S'c:/marmalade/6.3/s3e/h/std/sys/param.h'
p2245
sbsS'effects.h'
p2246
g252
(g1260
g254
Ntp2247
Rp2248
(dp2249
g1264
g922
sg1265
g1422
sg278
g937
sbsS'IwDivide.h'
p2250
g252
(g1260
g254
Ntp2251
Rp2252
(dp2253
g1264
g1146
sg1265
g1301
sg278
g1165
sbsS'IwResManager.h'
p2254
g252
(g1260
g254
Ntp2255
Rp2256
(dp2257
g1264
g1068
sg1265
g1515
sg278
g1084
sbsS'ostream'
p2258
g252
(g1260
g254
Ntp2259
Rp2260
(dp2261
g1264
g1272
sg1265
g1273
sg278
S'c:/marmalade/6.3/s3e/h/std/c++/ostream'
p2262
sbsS'cwctype'
p2263
g252
(g1260
g254
Ntp2264
Rp2265
(dp2266
g1264
g1272
sg1265
g1273
sg278
S'c:/marmalade/6.3/s3e/h/std/c++/cwctype'
p2267
sbsS'set'
p2268
g252
(g1260
g254
Ntp2269
Rp2270
(dp2271
g1264
g1272
sg1265
g1273
sg278
S'c:/marmalade/6.3/s3e/h/std/c++/set'
p2272
sbsS'IwGeomSQuat.h'
p2273
g252
(g1260
g254
Ntp2274
Rp2275
(dp2276
g1264
g1000
sg1265
g1282
sg278
g1013
sbsS'locale'
p2277
g252
(g1260
g254
Ntp2278
Rp2279
(dp2280
g1264
g1272
sg1265
g1273
sg278
S'c:/marmalade/6.3/s3e/h/std/c++/locale'
p2281
sbsS'cstdio'
p2282
g252
(g1260
g254
Ntp2283
Rp2284
(dp2285
g1264
g1272
sg1265
g1273
sg278
S'c:/marmalade/6.3/s3e/h/std/c++/cstdio'
p2286
sbsS'cdjpeg.h'
p2287
g252
(g1260
g254
Ntp2288
Rp2289
(dp2290
g1264
g876
sg1265
g1346
sg278
g891
sbsS'IwList.h'
p2291
g252
(g1260
g254
Ntp2292
Rp2293
(dp2294
g1264
g1146
sg1265
g1301
sg278
g1204
sbsS'inttypes.h'
p2295
g252
(g1260
g254
Ntp2296
Rp2297
(dp2298
g1264
g1272
sg1265
g1294
sg278
S'c:/marmalade/6.3/s3e/h/std/inttypes.h'
p2299
sbsS'dirent.h'
p2300
g252
(g1260
g254
Ntp2301
Rp2302
(dp2303
g1264
g1272
sg1265
g1294
sg278
S'c:/marmalade/6.3/s3e/h/std/dirent.h'
p2304
sbsS'IwFColour.h'
p2305
g252
(g1260
g254
Ntp2306
Rp2307
(dp2308
g1264
g1092
sg1265
g1390
sg278
g1117
sbsS'transupp.h'
p2309
g252
(g1260
g254
Ntp2310
Rp2311
(dp2312
g1264
g876
sg1265
g1346
sg278
g883
sbsS'IwMath.h'
p2313
g252
(g1260
g254
Ntp2314
Rp2315
(dp2316
g1264
g1146
sg1265
g1301
sg278
g1236
sbsS'IwGeomQuat.h'
p2317
g252
(g1260
g254
Ntp2318
Rp2319
(dp2320
g1264
g1000
sg1265
g1282
sg278
g998
sbsS'glplatform.h'
p2321
g252
(g1260
g254
Ntp2322
Rp2323
(dp2324
g1264
g1272
sg1265
g1809
sg278
S'c:/marmalade/6.3/s3e/h/GLES/glplatform.h'
p2325
sbsS'bitset'
p2326
g252
(g1260
g254
Ntp2327
Rp2328
(dp2329
g1264
g1272
sg1265
g1273
sg278
S'c:/marmalade/6.3/s3e/h/std/c++/bitset'
p2330
sbsS'alloca.h'
p2331
g252
(g1260
g254
Ntp2332
Rp2333
(dp2334
g1264
g1272
sg1265
g1294
sg278
S'c:/marmalade/6.3/s3e/h/std/alloca.h'
p2335
sbsS'IwResHandler.h'
p2336
g252
(g1260
g254
Ntp2337
Rp2338
(dp2339
g1264
g1068
sg1265
g1515
sg278
g1076
sbsS'IwResHandlerMTL.h'
p2340
g252
(g1260
g254
Ntp2341
Rp2342
(dp2343
g1264
g1092
sg1265
g1390
sg278
g1113
sbsS'IwRuntime.h'
p2344
g252
(g1260
g254
Ntp2345
Rp2346
(dp2347
g1264
g1146
sg1265
g1301
sg278
g1163
sbsS'limits'
p2348
g252
(g1260
g254
Ntp2349
Rp2350
(dp2351
g1264
g1272
sg1265
g1273
sg278
S'c:/marmalade/6.3/s3e/h/std/c++/limits'
p2352
sbsS'IwGeomBBox.h'
p2353
g252
(g1260
g254
Ntp2354
Rp2355
(dp2356
g1264
g1000
sg1265
g1282
sg278
g1050
sbsS's3eContacts.h'
p2357
g252
(g1260
g254
Ntp2358
Rp2359
(dp2360
g1264
g1272
sg1265
g1288
sg278
S'c:/marmalade/6.3/s3e/h/s3eContacts.h'
p2361
sbsS's3eLicense.h'
p2362
g252
(g1260
g254
Ntp2363
Rp2364
(dp2365
g1264
g1272
sg1265
g1288
sg278
S'c:/marmalade/6.3/s3e/h/s3eLicense.h'
p2366
sbsS'iwgx.config.txt'
p2367
g252
(g1260
g254
Ntp2368
Rp2369
(dp2370
g1264
g1092
sg1265
g1390
sg278
g1093
sbsS'IwTextParser.h'
p2371
g252
(g1260
g254
Ntp2372
Rp2373
(dp2374
g1264
g1146
sg1265
g1301
sg278
g1242
sbsS's3eTimer.h'
p2375
g252
(g1260
g254
Ntp2376
Rp2377
(dp2378
g1264
g1272
sg1265
g1288
sg278
S'c:/marmalade/6.3/s3e/h/s3eTimer.h'
p2379
sbsS'IwGeomVec.h'
p2380
g252
(g1260
g254
Ntp2381
Rp2382
(dp2383
g1264
g1000
sg1265
g1282
sg278
g1056
sbsS'IwSerialise.h'
p2384
g252
(g1260
g254
Ntp2385
Rp2386
(dp2387
g1264
g1146
sg1265
g1301
sg278
g1184
sbsS'cstdarg'
p2388
g252
(g1260
g254
Ntp2389
Rp2390
(dp2391
g1264
g1272
sg1265
g1273
sg278
S'c:/marmalade/6.3/s3e/h/std/c++/cstdarg'
p2392
sbsS'gl2ext.h'
p2393
g252
(g1260
g254
Ntp2394
Rp2395
(dp2396
g1264
g1272
sg1265
g1507
sg278
S'c:/marmalade/6.3/s3e/h/GLES2/gl2ext.h'
p2397
sbsS'IwChar.h'
p2398
g252
(g1260
g254
Ntp2399
Rp2400
(dp2401
g1264
g1146
sg1265
g1301
sg278
g1178
sbsS's3eSound.h'
p2402
g252
(g1260
g254
Ntp2403
Rp2404
(dp2405
g1264
g1272
sg1265
g1288
sg278
S'c:/marmalade/6.3/s3e/h/s3eSound.h'
p2406
sbsS'IwOptimiseThumb.h'
p2407
g252
(g1260
g254
Ntp2408
Rp2409
(dp2410
g1264
g1146
sg1265
g1301
sg278
g1190
sbsS'exception.h'
p2411
g252
(g1260
g254
Ntp2412
Rp2413
(dp2414
g1264
g1272
sg1265
g1273
sg278
S'c:/marmalade/6.3/s3e/h/std/c++/exception.h'
p2415
sbsS'iwgeom.config.txt'
p2416
g252
(g1260
g254
Ntp2417
Rp2418
(dp2419
g1264
g1000
sg1265
g1282
sg278
g1015
sbsS'iwgx.mkf'
p2420
g252
(g1260
g254
Ntp2421
Rp2422
(dp2423
g1264
g1127
sg1265
g1390
sg278
g1125
sbsS'gl.h'
p2424
g252
(g1260
g254
Ntp2425
Rp2426
(dp2427
g1264
g1272
sg1265
g1809
sg278
S'c:/marmalade/6.3/s3e/h/GLES/gl.h'
p2428
sbsS'zlib.h'
p2429
g252
(g1260
g254
Ntp2430
Rp2431
(dp2432
g1264
g1251
sg1265
g1904
sg278
g1249
sbsS'poll.h'
p2433
g252
(g1260
g254
Ntp2434
Rp2435
(dp2436
g1264
g1272
sg1265
g1294
sg278
S'c:/marmalade/6.3/s3e/h/std/poll.h'
p2437
sbsS'iwgl.mkf'
p2438
g252
(g1260
g254
Ntp2439
Rp2440
(dp2441
g1264
g957
sg1265
g1371
sg278
g955
sbsS'IwColour.h'
p2442
g252
(g1260
g254
Ntp2443
Rp2444
(dp2445
g1264
g1092
sg1265
g1390
sg278
g1119
sbsS's3eLibrary.h'
p2446
g252
(g1260
g254
Ntp2447
Rp2448
(dp2449
g1264
g1272
sg1265
g1478
sg278
S'c:/marmalade/6.3/s3e/h/ext/s3eLibrary.h'
p2450
sbsS'types.h'
p2451
g252
(g1260
g254
Ntp2452
Rp2453
(dp2454
g1264
g1272
sg1265
g1404
sg278
S'c:/marmalade/6.3/s3e/h/std/sys/types.h'
p2455
sbsS'ifaddrs.h'
p2456
g252
(g1260
g254
Ntp2457
Rp2458
(dp2459
g1264
g1272
sg1265
g1294
sg278
S'c:/marmalade/6.3/s3e/h/std/ifaddrs.h'
p2460
sbsS'strstream'
p2461
g252
(g1260
g254
Ntp2462
Rp2463
(dp2464
g1264
g1272
sg1265
g1273
sg278
S'c:/marmalade/6.3/s3e/h/std/c++/strstream'
p2465
sbsS'exception'
p2466
g252
(g1260
g254
Ntp2467
Rp2468
(dp2469
g1264
g1272
sg1265
g1273
sg278
S'c:/marmalade/6.3/s3e/h/std/c++/exception'
p2470
sbsS'rlocks.h'
p2471
g252
(g1260
g254
Ntp2472
Rp2473
(dp2474
g1264
g1272
sg1265
g1273
sg278
S'c:/marmalade/6.3/s3e/h/std/c++/rlocks.h'
p2475
sbsS'ioctl.h'
p2476
g252
(g1260
g254
Ntp2477
Rp2478
(dp2479
g1264
g1272
sg1265
g1404
sg278
S'c:/marmalade/6.3/s3e/h/std/sys/ioctl.h'
p2480
sbsS'rope'
p2481
g252
(g1260
g254
Ntp2482
Rp2483
(dp2484
g1264
g1272
sg1265
g1273
sg278
S'c:/marmalade/6.3/s3e/h/std/c++/rope'
p2485
sbsS'jinclude.h'
p2486
g252
(g1260
g254
Ntp2487
Rp2488
(dp2489
g1264
g876
sg1265
g1346
sg278
g877
sbsS'IwEvent.h'
p2490
g252
(g1260
g254
Ntp2491
Rp2492
(dp2493
g1264
g1146
sg1265
g1301
sg278
g1192
sbsS'IwOptimiseSize.h'
p2494
g252
(g1260
g254
Ntp2495
Rp2496
(dp2497
g1264
g1146
sg1265
g1301
sg278
g1159
sbsS'iwgxfont_public.defines.txt'
p2498
g252
(g1260
g254
Ntp2499
Rp2500
(dp2501
g1264
g981
sg1265
g1266
sg278
g986
sbsS'iconv.h'
p2502
g252
(g1260
g254
Ntp2503
Rp2504
(dp2505
g1264
g1272
sg1265
g1294
sg278
S'c:/marmalade/6.3/s3e/h/std/iconv.h'
p2506
sbsS'sendfile.h'
p2507
g252
(g1260
g254
Ntp2508
Rp2509
(dp2510
g1264
g1272
sg1265
g1404
sg278
S'c:/marmalade/6.3/s3e/h/std/sys/sendfile.h'
p2511
sbsS'IwGeomSphere.h'
p2512
g252
(g1260
g254
Ntp2513
Rp2514
(dp2515
g1264
g1000
sg1265
g1282
sg278
g1003
sbsS'tiniconv.mkf'
p2516
g252
(g1260
g254
Ntp2517
Rp2518
(dp2519
g1264
g915
sg1265
g1705
sg278
g913
sbsS'jdct.h'
p2520
g252
(g1260
g254
Ntp2521
Rp2522
(dp2523
g1264
g876
sg1265
g1346
sg278
g895
sbsS'cctype'
p2524
g252
(g1260
g254
Ntp2525
Rp2526
(dp2527
g1264
g1272
sg1265
g1273
sg278
S'c:/marmalade/6.3/s3e/h/std/c++/cctype'
p2528
sbsS's3eConfig.h'
p2529
g252
(g1260
g254
Ntp2530
Rp2531
(dp2532
g1264
g1272
sg1265
g1288
sg278
S'c:/marmalade/6.3/s3e/h/s3eConfig.h'
p2533
sbsS'IwHashString.h'
p2534
g252
(g1260
g254
Ntp2535
Rp2536
(dp2537
g1264
g1146
sg1265
g1301
sg278
g1220
sbsS'stat.h'
p2538
g252
(g1260
g254
Ntp2539
Rp2540
(dp2541
g1264
g1272
sg1265
g1404
sg278
S'c:/marmalade/6.3/s3e/h/std/sys/stat.h'
p2542
sbsS'byteswap.h'
p2543
g252
(g1260
g254
Ntp2544
Rp2545
(dp2546
g1264
g1272
sg1265
g1294
sg278
S'c:/marmalade/6.3/s3e/h/std/byteswap.h'
p2547
sbsS'iwresmanager.mkf'
p2548
g252
(g1260
g254
Ntp2549
Rp2550
(dp2551
g1264
g1071
sg1265
g1515
sg278
g1069
sbsS'IwUtilInitTerm.h'
p2552
g252
(g1260
g254
Ntp2553
Rp2554
(dp2555
g1264
g1146
sg1265
g1301
sg278
g1169
sbsS'titlescreen.h'
p2556
g252
(g1260
g254
Ntp2557
Rp2558
(dp2559
g1264
g922
sg1265
g1422
sg278
g927
sbsS'pthread_1.h'
p2560
g252
(g1260
g254
Ntp2561
Rp2562
(dp2563
g1264
g1272
sg1265
g1273
sg278
S'c:/marmalade/6.3/s3e/h/std/c++/pthread.h'
p2564
sbsS'IwMemBucket.h'
p2565
g252
(g1260
g254
Ntp2566
Rp2567
(dp2568
g1264
g1146
sg1265
g1301
sg278
g1198
sbsS'complex'
p2569
g252
(g1260
g254
Ntp2570
Rp2571
(dp2572
g1264
g1272
sg1265
g1273
sg278
S'c:/marmalade/6.3/s3e/h/std/c++/complex'
p2573
sbsS'game.cpp'
p2574
g252
(g1260
g254
Ntp2575
Rp2576
(dp2577
g1264
g922
sg1265
g1422
sg278
g920
sbsS's3e.icf'
p2578
g252
(g1260
g254
Ntp2579
Rp2580
(dp2581
g1264
g1272
sg1265
g1288
sg278
S'c:/marmalade/6.3/s3e/s3e.icf'
p2582
sbsS'IwVariableBitField.h'
p2583
g252
(g1260
g254
Ntp2584
Rp2585
(dp2586
g1264
g1146
sg1265
g1301
sg278
g1188
sbsS'sem.h'
p2587
g252
(g1260
g254
Ntp2588
Rp2589
(dp2590
g1264
g1272
sg1265
g1404
sg278
S'c:/marmalade/6.3/s3e/h/std/sys/sem.h'
p2591
sbsS'IwGxFontState.h'
p2592
g252
(g1260
g254
Ntp2593
Rp2594
(dp2595
g1264
g981
sg1265
g1266
sg278
g984
sbsS'stdio.h'
p2596
g252
(g1260
g254
Ntp2597
Rp2598
(dp2599
g1264
g1272
sg1265
g1294
sg278
S'c:/marmalade/6.3/s3e/h/std/stdio.h'
p2600
sbsS'jmemsys.h'
p2601
g252
(g1260
g254
Ntp2602
Rp2603
(dp2604
g1264
g876
sg1265
g1346
sg278
g874
sbsS'ios'
p2605
g252
(g1260
g254
Ntp2606
Rp2607
(dp2608
g1264
g1272
sg1265
g1273
sg278
S'c:/marmalade/6.3/s3e/h/std/c++/ios'
p2609
sbsS'stack'
p2610
g252
(g1260
g254
Ntp2611
Rp2612
(dp2613
g1264
g1272
sg1265
g1273
sg278
S'c:/marmalade/6.3/s3e/h/std/c++/stack'
p2614
sbsS'new.h'
p2615
g252
(g1260
g254
Ntp2616
Rp2617
(dp2618
g1264
g1272
sg1265
g1273
sg278
S'c:/marmalade/6.3/s3e/h/std/c++/new.h'
p2619
sbsS's3eEMail.h'
p2620
g252
(g1260
g254
Ntp2621
Rp2622
(dp2623
g1264
g1272
sg1265
g1478
sg278
S'c:/marmalade/6.3/s3e/h/ext/s3eEMail.h'
p2624
sbsS's3eVideo.h'
p2625
g252
(g1260
g254
Ntp2626
Rp2627
(dp2628
g1264
g1272
sg1265
g1288
sg278
S'c:/marmalade/6.3/s3e/h/s3eVideo.h'
p2629
sbsS'IwFile.h'
p2630
g252
(g1260
g254
Ntp2631
Rp2632
(dp2633
g1264
g1146
sg1265
g1301
sg278
g1155
sbsS'pwd.h'
p2634
g252
(g1260
g254
Ntp2635
Rp2636
(dp2637
g1264
g1272
sg1265
g1294
sg278
S'c:/marmalade/6.3/s3e/h/std/pwd.h'
p2638
sbsS'IwClip.h'
p2639
g252
(g1260
g254
Ntp2640
Rp2641
(dp2642
g1264
g1092
sg1265
g1390
sg278
g1132
sbsS'iwresmanager.config.txt'
p2643
g252
(g1260
g254
Ntp2644
Rp2645
(dp2646
g1264
g1068
sg1265
g1515
sg278
g1080
sbsS'IwGxShaderTechnique.h'
p2647
g252
(g1260
g254
Ntp2648
Rp2649
(dp2650
g1264
g1092
sg1265
g1390
sg278
g1121
sbsS'IwCore.h'
p2651
g252
(g1260
g254
Ntp2652
Rp2653
(dp2654
g1264
g1146
sg1265
g1301
sg278
g1153
sbsS'cfloat'
p2655
g252
(g1260
g254
Ntp2656
Rp2657
(dp2658
g1264
g1272
sg1265
g1273
sg278
S'c:/marmalade/6.3/s3e/h/std/c++/cfloat'
p2659
sbsS'IwGeomMat2D.h'
p2660
g252
(g1260
g254
Ntp2661
Rp2662
(dp2663
g1264
g1000
sg1265
g1282
sg278
g1007
sbsS'IwAllocator.h'
p2664
g252
(g1260
g254
Ntp2665
Rp2666
(dp2667
g1264
g1146
sg1265
g1301
sg278
g1238
sbsS'IwPath.h'
p2668
g252
(g1260
g254
Ntp2669
Rp2670
(dp2671
g1264
g1146
sg1265
g1301
sg278
g1167
sbsS'iwgxfont.mkf'
p2672
g252
(g1260
g254
Ntp2673
Rp2674
(dp2675
g1264
g978
sg1265
g1266
sg278
g976
sbsS'IwTexture.h'
p2676
g252
(g1260
g254
Ntp2677
Rp2678
(dp2679
g1264
g1092
sg1265
g1390
sg278
g1140
sbsS's3eAccelerometer.h'
p2680
g252
(g1260
g254
Ntp2681
Rp2682
(dp2683
g1264
g1272
sg1265
g1288
sg278
S'c:/marmalade/6.3/s3e/h/s3eAccelerometer.h'
p2684
sbsS'setjmp.h'
p2685
g252
(g1260
g254
Ntp2686
Rp2687
(dp2688
g1264
g1272
sg1265
g1294
sg278
S'c:/marmalade/6.3/s3e/h/std/setjmp.h'
p2689
sbsS'pngconf.h'
p2690
g252
(g1260
g254
Ntp2691
Rp2692
(dp2693
g1264
g865
sg1265
g1959
sg278
g866
sbsS'IwTextParseable.h'
p2694
g252
(g1260
g254
Ntp2695
Rp2696
(dp2697
g1264
g1146
sg1265
g1301
sg278
g1224
sbsS'istream.h'
p2698
g252
(g1260
g254
Ntp2699
Rp2700
(dp2701
g1264
g1272
sg1265
g1273
sg278
S'c:/marmalade/6.3/s3e/h/std/c++/istream.h'
p2702
sbsS'stdint.h'
p2703
g252
(g1260
g254
Ntp2704
Rp2705
(dp2706
g1264
g1272
sg1265
g1294
sg278
S'c:/marmalade/6.3/s3e/h/std/stdint.h'
p2707
sbsS'semaphore.h'
p2708
g252
(g1260
g254
Ntp2709
Rp2710
(dp2711
g1264
g1272
sg1265
g1294
sg278
S'c:/marmalade/6.3/s3e/h/std/semaphore.h'
p2712
sbsS'ctime'
p2713
g252
(g1260
g254
Ntp2714
Rp2715
(dp2716
g1264
g1272
sg1265
g1273
sg278
S'c:/marmalade/6.3/s3e/h/std/c++/ctime'
p2717
sbsS'sstream'
p2718
g252
(g1260
g254
Ntp2719
Rp2720
(dp2721
g1264
g1272
sg1265
g1273
sg278
S'c:/marmalade/6.3/s3e/h/std/c++/sstream'
p2722
sbsS'IwGeomFBBox.h'
p2723
g252
(g1260
g254
Ntp2724
Rp2725
(dp2726
g1264
g1000
sg1265
g1282
sg278
g1021
sbsS'IwDebugPrim.h'
p2727
g252
(g1260
g254
Ntp2728
Rp2729
(dp2730
g1264
g1092
sg1265
g1390
sg278
g1097
sbsS'IwGxFontContainer.h'
p2731
g252
(g1260
g254
Ntp2732
Rp2733
(dp2734
g1264
g981
sg1265
g1266
sg278
g990
sbsS'IwGeomSVec3.h'
p2735
g252
(g1260
g254
Ntp2736
Rp2737
(dp2738
g1264
g1000
sg1265
g1282
sg278
g1042
sbsS'cassert'
p2739
g252
(g1260
g254
Ntp2740
Rp2741
(dp2742
g1264
g1272
sg1265
g1273
sg278
S'c:/marmalade/6.3/s3e/h/std/c++/cassert'
p2743
sbsS'IwGeomFVec3.h'
p2744
g252
(g1260
g254
Ntp2745
Rp2746
(dp2747
g1264
g1000
sg1265
g1282
sg278
g1046
sbsS'streambuf'
p2748
g252
(g1260
g254
Ntp2749
Rp2750
(dp2751
g1264
g1272
sg1265
g1273
sg278
S'c:/marmalade/6.3/s3e/h/std/c++/streambuf'
p2752
sbsS's3eMetrics.h'
p2753
g252
(g1260
g254
Ntp2754
Rp2755
(dp2756
g1264
g1272
sg1265
g1478
sg278
S'c:/marmalade/6.3/s3e/h/ext/s3eMetrics.h'
p2757
sbsS'IwGxFont.h'
p2758
g252
(g1260
g254
Ntp2759
Rp2760
(dp2761
g1264
g981
sg1265
g1266
sg278
g992
sbsS's3eSecureStorage.h'
p2762
g252
(g1260
g254
Ntp2763
Rp2764
(dp2765
g1264
g1272
sg1265
g1288
sg278
S'c:/marmalade/6.3/s3e/h/s3eSecureStorage.h'
p2766
sbsS'string.h'
p2767
g252
(g1260
g254
Ntp2768
Rp2769
(dp2770
g1264
g1272
sg1265
g1294
sg278
S'c:/marmalade/6.3/s3e/h/std/string.h'
p2771
sbsS'IwResource.h'
p2772
g252
(g1260
g254
Ntp2773
Rp2774
(dp2775
g1264
g1146
sg1265
g1301
sg278
g1218
sbsS'libjpeg.mkf'
p2776
g252
(g1260
g254
Ntp2777
Rp2778
(dp2779
g1264
g905
sg1265
(lp2780
g871
asg278
g903
sbsS'IwGxDebug.h'
p2781
g252
(g1260
g254
Ntp2782
Rp2783
(dp2784
g1264
g1092
sg1265
g1390
sg278
g1138
sbsS'pthread_types.h'
p2785
g252
(g1260
g254
Ntp2786
Rp2787
(dp2788
g1264
g1272
sg1265
g1294
sg278
S'c:/marmalade/6.3/s3e/h/std/pthread_types.h'
p2789
sbsS'iomanip.h'
p2790
g252
(g1260
g254
Ntp2791
Rp2792
(dp2793
g1264
g1272
sg1265
g1273
sg278
S'c:/marmalade/6.3/s3e/h/std/c++/iomanip.h'
p2794
sbsS'rendering.h'
p2795
g252
(g1260
g254
Ntp2796
Rp2797
(dp2798
g1264
g922
sg1265
g1422
sg278
g939
sbsS'patriotmissiledefense.mkf'
p2799
g252
(g1260
g254
Ntp2800
Rp2801
(dp2802
g1264
g943
sg1265
(lp2803
g916
asg278
g941
sbsS'IwKeymap.h'
p2804
g252
(g1260
g254
Ntp2805
Rp2806
(dp2807
g1264
g1146
sg1265
g1301
sg278
g1244
sbsS'IwDebug.h'
p2808
g252
(g1260
g254
Ntp2809
Rp2810
(dp2811
g1264
g1146
sg1265
g1301
sg278
g1147
sbsS's3eIOSBackgroundAudio.h'
p2812
g252
(g1260
g254
Ntp2813
Rp2814
(dp2815
g1264
g1272
sg1265
g1478
sg278
S'c:/marmalade/6.3/s3e/h/ext/s3eIOSBackgroundAudio.h'
p2816
sbsS'IwGeomMenu.h'
p2817
g252
(g1260
g254
Ntp2818
Rp2819
(dp2820
g1264
g1000
sg1265
g1282
sg278
g1038
sbsS'IwDivTable.h'
p2821
g252
(g1260
g254
Ntp2822
Rp2823
(dp2824
g1264
g1146
sg1265
g1301
sg278
g1202
sbsS'ctype.h'
p2825
g252
(g1260
g254
Ntp2826
Rp2827
(dp2828
g1264
g1272
sg1265
g1294
sg278
S'c:/marmalade/6.3/s3e/h/std/ctype.h'
p2829
sbsS'IwGeomMat.h'
p2830
g252
(g1260
g254
Ntp2831
Rp2832
(dp2833
g1264
g1000
sg1265
g1282
sg278
g1011
sbsS'IwResGroup.h'
p2834
g252
(g1260
g254
Ntp2835
Rp2836
(dp2837
g1264
g1068
sg1265
g1515
sg278
g1066
sbsS'signal_1.h'
p2838
g252
(g1260
g254
Ntp2839
Rp2840
(dp2841
g1264
g1272
sg1265
g1404
sg278
S'c:/marmalade/6.3/s3e/h/std/sys/signal.h'
p2842
sbsS'main.cpp'
p2843
g252
(g1260
g254
Ntp2844
Rp2845
(dp2846
g1264
g922
sg1265
g1422
sg278
g929
sbsS'shm.h'
p2847
g252
(g1260
g254
Ntp2848
Rp2849
(dp2850
g1264
g1272
sg1265
g1404
sg278
S'c:/marmalade/6.3/s3e/h/std/sys/shm.h'
p2851
sbsS'jpegint.h'
p2852
g252
(g1260
g254
Ntp2853
Rp2854
(dp2855
g1264
g876
sg1265
g1346
sg278
g901
sbsS'prctl.h'
p2856
g252
(g1260
g254
Ntp2857
Rp2858
(dp2859
g1264
g1272
sg1265
g1404
sg278
S'c:/marmalade/6.3/s3e/h/std/sys/prctl.h'
p2860
sbsS'un.h'
p2861
g252
(g1260
g254
Ntp2862
Rp2863
(dp2864
g1264
g1272
sg1265
g1404
sg278
S'c:/marmalade/6.3/s3e/h/std/sys/un.h'
p2865
sbsS'utility'
p2866
g252
(g1260
g254
Ntp2867
Rp2868
(dp2869
g1264
g1272
sg1265
g1273
sg278
S'c:/marmalade/6.3/s3e/h/std/c++/utility'
p2870
sbsS'IwGeomLegacy.h'
p2871
g252
(g1260
g254
Ntp2872
Rp2873
(dp2874
g1264
g1000
sg1265
g1282
sg278
g1054
sbsS'IwTPage.h'
p2875
g252
(g1260
g254
Ntp2876
Rp2877
(dp2878
g1264
g1092
sg1265
g1390
sg278
g1115
sbsS'IwResSerialise.h'
p2879
g252
(g1260
g254
Ntp2880
Rp2881
(dp2882
g1264
g1068
sg1265
g1515
sg278
g1082
sbsS's3eCrypto.h'
p2883
g252
(g1260
g254
Ntp2884
Rp2885
(dp2886
g1264
g1272
sg1265
g1288
sg278
S'c:/marmalade/6.3/s3e/h/s3eCrypto.h'
p2887
sbsS's3eKeyboard.h'
p2888
g252
(g1260
g254
Ntp2889
Rp2890
(dp2891
g1264
g1272
sg1265
g1288
sg278
S'c:/marmalade/6.3/s3e/h/s3eKeyboard.h'
p2892
sbsS'fcntl.h'
p2893
g252
(g1260
g254
Ntp2894
Rp2895
(dp2896
g1264
g1272
sg1265
g1294
sg278
S'c:/marmalade/6.3/s3e/h/std/fcntl.h'
p2897
sbsS'memory.h'
p2898
g252
(g1260
g254
Ntp2899
Rp2900
(dp2901
g1264
g1272
sg1265
g1294
sg278
S'c:/marmalade/6.3/s3e/h/std/memory.h'
p2902
sbsS'pthread.h'
p2903
g252
(g1260
g254
Ntp2904
Rp2905
(dp2906
g1264
g1272
sg1265
g1294
sg278
S'c:/marmalade/6.3/s3e/h/std/pthread.h'
p2907
sbsS'IwGeomIntersect.h'
p2908
g252
(g1260
g254
Ntp2909
Rp2910
(dp2911
g1264
g1000
sg1265
g1282
sg278
g1028
sbsS'algorithm'
p2912
g252
(g1260
g254
Ntp2913
Rp2914
(dp2915
g1264
g1272
sg1265
g1273
sg278
S'c:/marmalade/6.3/s3e/h/std/c++/algorithm'
p2916
sbsS'egl_1.h'
p2917
g252
(g1260
g254
Ntp2918
Rp2919
(dp2920
g1264
g1272
sg1265
g1809
sg278
S'c:/marmalade/6.3/s3e/h/GLES/egl.h'
p2921
sbsS'ostream.h'
p2922
g252
(g1260
g254
Ntp2923
Rp2924
(dp2925
g1264
g1272
sg1265
g1273
sg278
S'c:/marmalade/6.3/s3e/h/std/c++/ostream.h'
p2926
sbsS'stl_user_config.h'
p2927
g252
(g1260
g254
Ntp2928
Rp2929
(dp2930
g1264
g1272
sg1265
g1273
sg278
S'c:/marmalade/6.3/s3e/h/std/c++/stl_user_config.h'
p2931
sbsS'IwProfileMenu.h'
p2932
g252
(g1260
g254
Ntp2933
Rp2934
(dp2935
g1264
g1146
sg1265
g1301
sg278
g1196
sbsS'MarmaladeVersion.h'
p2936
g252
(g1260
g254
Ntp2937
Rp2938
(dp2939
g1264
g1272
sg1265
g1288
sg278
S'c:/marmalade/6.3/s3e/h/MarmaladeVersion.h'
p2940
sbsS'ios.h'
p2941
g252
(g1260
g254
Ntp2942
Rp2943
(dp2944
g1264
g1272
sg1265
g1273
sg278
S'c:/marmalade/6.3/s3e/h/std/c++/ios.h'
p2945
sbsS'IwImageHelper.h'
p2946
g252
(g1260
g254
Ntp2947
Rp2948
(dp2949
g1264
g1146
sg1265
g1301
sg278
g1222
sbsS'hash_set'
p2950
g252
(g1260
g254
Ntp2951
Rp2952
(dp2953
g1264
g1272
sg1265
g1273
sg278
S'c:/marmalade/6.3/s3e/h/std/c++/hash_set'
p2954
sbsS'IwGeomFQuat.h'
p2955
g252
(g1260
g254
Ntp2956
Rp2957
(dp2958
g1264
g1000
sg1265
g1282
sg278
g1040
sbsS'jmorecfg.h'
p2959
g252
(g1260
g254
Ntp2960
Rp2961
(dp2962
g1264
g876
sg1265
g1346
sg278
g885
sbsS'eglplatform.h'
p2963
g252
(g1260
g254
Ntp2964
Rp2965
(dp2966
g1264
g1272
sg1265
g1586
sg278
S'c:/marmalade/6.3/s3e/h/EGL/eglplatform.h'
p2967
sbsS'localise.cpp'
p2968
g252
(g1260
g254
Ntp2969
Rp2970
(dp2971
g1264
g922
sg1265
g1422
sg278
g931
sbsS'stdbool.h'
p2972
g252
(g1260
g254
Ntp2973
Rp2974
(dp2975
g1264
g1272
sg1265
g1294
sg278
S'c:/marmalade/6.3/s3e/h/std/stdbool.h'
p2976
sbsS'math_gcc.h'
p2977
g252
(g1260
g254
Ntp2978
Rp2979
(dp2980
g1264
g1272
sg1265
g1294
sg278
S'c:/marmalade/6.3/s3e/h/std/math_gcc.h'
p2981
sbsS's3eMemory.h'
p2982
g252
(g1260
g254
Ntp2983
Rp2984
(dp2985
g1264
g1272
sg1265
g1288
sg278
S'c:/marmalade/6.3/s3e/h/s3eMemory.h'
p2986
sbsS'strings.h'
p2987
g252
(g1260
g254
Ntp2988
Rp2989
(dp2990
g1264
g1272
sg1265
g1294
sg278
S'c:/marmalade/6.3/s3e/h/std/strings.h'
p2991
sbsS's3eFile.h'
p2992
g252
(g1260
g254
Ntp2993
Rp2994
(dp2995
g1264
g1272
sg1265
g1288
sg278
S'c:/marmalade/6.3/s3e/h/s3eFile.h'
p2996
sbsS'IwGxTypes.h'
p2997
g252
(g1260
g254
Ntp2998
Rp2999
(dp3000
g1264
g1092
sg1265
g1390
sg278
g1123
sbsS'cerrno'
p3001
g252
(g1260
g254
Ntp3002
Rp3003
(dp3004
g1264
g1272
sg1265
g1273
sg278
S'c:/marmalade/6.3/s3e/h/std/c++/cerrno'
p3005
sbsS'resource.h'
p3006
g252
(g1260
g254
Ntp3007
Rp3008
(dp3009
g1264
g1272
sg1265
g1404
sg278
S'c:/marmalade/6.3/s3e/h/std/sys/resource.h'
p3010
sbsS'clocale'
p3011
g252
(g1260
g254
Ntp3012
Rp3013
(dp3014
g1264
g1272
sg1265
g1273
sg278
S'c:/marmalade/6.3/s3e/h/std/c++/clocale'
p3015
sbsS'csetjmp'
p3016
g252
(g1260
g254
Ntp3017
Rp3018
(dp3019
g1264
g1272
sg1265
g1273
sg278
S'c:/marmalade/6.3/s3e/h/std/c++/csetjmp'
p3020
sbsS'netdb.h'
p3021
g252
(g1260
g254
Ntp3022
Rp3023
(dp3024
g1264
g1272
sg1265
g1294
sg278
S'c:/marmalade/6.3/s3e/h/std/netdb.h'
p3025
sbsS's3eAndroidJNI.h'
p3026
g252
(g1260
g254
Ntp3027
Rp3028
(dp3029
g1264
g1272
sg1265
g1478
sg278
S'c:/marmalade/6.3/s3e/h/ext/s3eAndroidJNI.h'
p3030
sbsS'stdexcept'
p3031
g252
(g1260
g254
Ntp3032
Rp3033
(dp3034
g1264
g1272
sg1265
g1273
sg278
S'c:/marmalade/6.3/s3e/h/std/c++/stdexcept'
p3035
sbsS'math.h'
p3036
g252
(g1260
g254
Ntp3037
Rp3038
(dp3039
g1264
g1272
sg1265
g1294
sg278
S'c:/marmalade/6.3/s3e/h/std/math.h'
p3040
sbsS'cmath'
p3041
g252
(g1260
g254
Ntp3042
Rp3043
(dp3044
g1264
g1272
sg1265
g1273
sg278
S'c:/marmalade/6.3/s3e/h/std/c++/cmath'
p3045
sbsS'uio.h'
p3046
g252
(g1260
g254
Ntp3047
Rp3048
(dp3049
g1264
g1272
sg1265
g1404
sg278
S'c:/marmalade/6.3/s3e/h/std/sys/uio.h'
p3050
sbsS'IwUncopyable.h'
p3051
g252
(g1260
g254
Ntp3052
Rp3053
(dp3054
g1264
g1146
sg1265
g1301
sg278
g1186
sbssS'tests'
p3055
(lp3056
sS'project_name'
p3057
g260
sS'root_file'
p3058
g109
sS'current_root'
p3059
S'c:/Users/Pietro/Documents/GitHub/Patriot-Missile-Defense'
p3060
sS'dependencies'
p3061
(lp3062
sS'include_paths'
p3063
(lp3064
S'c:/marmalade/6.3/modules/third_party/libjpeg/h'
p3065
aS'c:/marmalade/6.3/modules/third_party/zlib/h'
p3066
aS'c:/marmalade/6.3/modules/third_party/libpng/h'
p3067
aS'c:/marmalade/6.3/modules/iwutil/h'
p3068
aS'c:/marmalade/6.3/modules/iwgeom/h'
p3069
aS'c:/marmalade/6.3/modules/iwresmanager/h'
p3070
aS'c:/marmalade/6.3/modules/iwgl/h'
p3071
aS'c:/marmalade/6.3/modules/iwgx/h'
p3072
aS'c:/marmalade/6.3/modules/third_party/tiniconv/source'
p3073
aS'c:/marmalade/6.3/modules/iwgxfont/h'
p3074
aS'c:/marmalade/6.3/modules/iw2d/h'
p3075
aS'c:/marmalade/6.3/s3e/h'
p3076
aS'c:/marmalade/6.3/s3e/h/ext'
p3077
aS'c:/marmalade/6.3/s3e/h/std'
p3078
aS'c:/marmalade/6.3/s3e/h/std/c++'
p3079
aS'c:/marmalade/6.3/s3e/h/ext_legacy'
p3080
aS'c:/marmalade/6.3/s3e/h/legacy'
p3081
asS'weak_frameworks'
p3082
(lp3083
sS'extprojects'
p3084
(dp3085
sg508
(dp3086
g502
(lp3087
(g70
S'.'
p3088
I0
tp3089
asS'default'
p3090
(lp3091
(S'c:/users/pietro/documents/github/patriot-missile-defense/data/splashscreen.jpg'
p3092
S'splashscreen.jpg'
p3093
I0
tp3094
a(S'c:/users/pietro/documents/github/patriot-missile-defense/data-ram/data-gles2-dx11/resources.group.bin'
p3095
S'resources.group.bin'
p3096
I0
tp3097
asS'artbuild'
p3098
(lp3099
(S'c:/users/pietro/documents/github/patriot-missile-defense/data'
p3100
g3088
I0
tp3101
assS'macro_types'
p3102
(dp3103
g455
I1
sg456
I0
sg457
I0
sg458
I0
sg459
I0
sg460
I0
sg461
I0
sg463
I0
sg464
I0
sg465
I0
sg466
I0
sg468
I0
sg470
I0
sg471
I0
sg472
I0
sg473
I0
sg474
I0
sg475
I1
sg476
I0
sg477
I0
sg478
I0
sg479
I01
sg480
I1
sg481
I0
sg482
I0
sg483
I0
ssS'commands'
p3104
(lp3105
sg511
(g852
S'VC10X'
p3106
S'X86ARM'
p3107
tp3108
sS'subprojectOptions'
p3109
(dp3110
g515
(lp3111
sg517
Nsg519
Nsg520
Nsg521
Nsg522
Nsg523
Nsg524
Nsg525
Nsg526
(lp3112
sg528
Nsg667
Nsg532
Nsg533
Nsg534
Nsg535
Nsg536
Nsg537
Nsg538
Nsg539
Nsg542
Nsg543
(lp3113
sg789
Nsg754
Nsg546
Nsg547
Nsg548
Nsg751
Nsg550
Nsg551
Nsg552
Nsg553
Nsg554
Nsg555
Nsg556
Nsg557
Nsg558
Nsg758
Nsg560
Nsg561
Nsg750
Nsg562
Nsg563
Nsg564
Nsg565
Nsg566
Nsg568
Nsg620
Nsg570
Nsg670
Nsg573
Nsg574
Nsg576
Nsg577
Nsg578
Nsg579
Nsg580
Nsg581
Nsg582
Nsg583
Nsg584
Nsg586
Nsg779
Nsg671
Nsg587
Nsg590
Nsg591
Nsg593
Nsg594
Nsg595
Nsg597
(lp3114
sg599
Nsg600
Nsg601
Nsg602
Nsg603
Nsg604
Nsg605
Nsg606
Nsg607
Nsg676
Nsg609
Nsg611
Nsg615
Nsg616
Nsg618
Nsg619
Nsg569
Nsg621
Nsg677
Nsg630
Nsg625
Nsg626
Nsg627
Nsg628
Nsg629
Nsg623
(lp3115
sg631
Nsg773
Nsg633
Nsg634
Nsg635
Nsg636
Nsg637
Nsg638
Nsg639
Nsg640
Nsg679
Nsg642
Nsg780
Nsg643
(lp3116
sg680
Nsg646
Nsg774
Nsg648
(lp3117
sg650
Nsg651
Nsg652
Nsg653
Nsg654
Nsg613
Nsg657
Nsg658
Nsg659
Nsg660
Nsg661
Nsg662
(lp3118
sg664
Nsg665
Nsg666
Nsg804
Nsg531
Nsg668
Nsg669
Nsg772
Nsg571
(lp3119
sg755
Nsg529
Nsg672
Nsg673
Nsg674
Nsg675
Nsg608
Nsg622
Nsg678
Nsg641
Nsg645
Nsg681
Nsg682
Nsg683
Nsg684
Nsg781
Nsg686
Nsg687
Nsg688
Nsg689
Nsg690
Nsg691
Nsg692
Nsg693
Nsg694
(lp3120
sg696
Nsg697
Nsg698
Nsg699
Nsg700
Nsg701
Nsg702
(lp3121
sg704
Nsg705
Nsg706
Nsg707
Nsg708
Nsg709
Nsg710
(lp3122
sg712
Nsg713
Nsg714
Nsg715
Nsg716
Nsg717
Nsg718
Nsg719
Nsg720
Nsg734
Nsg592
Nsg736
Nsg801
Nsg724
Nsg725
Nsg726
Nsg737
Nsg730
Nsg731
Nsg732
Nsg733
Nsg540
(lp3123
sg735
Nsg723
Nsg784
Nsg729
Nsg738
Nsg748
Nsg739
Nsg798
Nsg741
Nsg742
Nsg743
Nsg744
Nsg745
Nsg746
Nsg747
Nsg655
Nsg749
Nsg575
Nsg559
Nsg752
Nsg753
Nsg545
Nsg722
Nsg756
Nsg757
Nsg656
Nsg759
Nsg760
Nsg761
Nsg762
Nsg763
Nsg764
Nsg765
Nsg766
Nsg767
Nsg768
Nsg769
(lp3124
sg771
Nsg567
Nsg632
Nsg647
Nsg775
Nsg776
Nsg777
Nsg778
Nsg588
Nsg530
Nsg685
Nsg782
Nsg727
Nsg785
Nsg786
Nsg787
Nsg788
Nsg610
Nsg790
Nsg793
Nsg794
Nsg795
Nsg796
Nsg797
Nsg740
Nsg799
Nsg800
Nsg721
Nsg802
Nsg803
Nsg518
Nsg805
NssS'build_libs'
p3125
(dp3126
sS'frameworks'
p3127
(lp3128
sS'environ'
p3129
(dp3130
sS'target_name_debug'
p3131
g260
sS'builders'
p3132
(dp3133
S'.S'
p3134
(dp3135
S'rvct'
p3136
(lp3137
S'.obj'
p3138
aS'echo ARM Assembling(RVCT) ${SOURCE}...'
p3139
aS'c:/marmalade/6.3/s3e\\rvct\\bin\\armasm -o ${TARGET} ${SOURCE}'
p3140
asS'gcc'
p3141
(lp3142
g3138
aS'echo ARM Assembling(GCC) ${SOURCE}...'
p3143
aS'c:/marmalade/6.3/s3e\\gcc\\bin\\arm-none-eabi-gcc -c -o ${TARGET} ${SOURCE}'
p3144
asS'ppu'
p3145
(lp3146
S'.a'
p3147
aS'echo PPU Assembling(SNC) ${SOURCE}...'
p3148
aS'c:/marmalade/6.3/s3e\\rvct\\bin\\armasm -o ${TARGET} ${SOURCE}'
p3149
assS'.s'
p3150
g3135
sS'.vp'
p3151
(lp3152
NaS'"C:/Marmalade/6.3/s3e/python/python.exe" "c:/marmalade/6.3/modules/iwgx/tools/compile_shaders.py" ${SOURCE}'
p3153
assg513
g0
sbtp3154
.