((dp0
S'game-icf'
p1
S''
p2
sS'dist'
p3
NsS'module_path_append'
p4
NsS'global_path'
p5
S'c:\\users\\pietro\\documents\\github'
p6
sS'system_path'
p7
S'c:\\marmalade\\6.3\\s3e\\makefile_builder'
p8
sS'use_prebuilt'
p9
NsS'amd64'
p10
NsS'line-width'
p11
I80
sS'android-x86'
p12
NsS'x86_dbg_exe'
p13
S'c:/marmalade/6.3/s3e\\win32\\s3e_simulator_debug.exe'
p14
sS'disable-runtime-checks'
p15
NsS'release'
p16
NsS'no-make'
p17
NsS'optimise-size'
p18
NsS'output-name-debug'
p19
g2
sS'arm-fpu'
p20
S'vfp'
p21
sS'psp'
p22
NsS'rvct-version'
p23
S'none'
p24
sS'compiler'
p25
g2
sS'execute'
p26
NsS'compile-static'
p27
NsS'msvc-project'
p28
NsS'buildenv'
p29
S'VC11XWP_WP8DEVTOOLSET'
p30
sS'debug'
p31
NsS'module_path'
p32
NsS'use-release-std-libs'
p33
NsS'using_perforce'
p34
I00
sS'mips-s3e'
p35
NsS'shared-arm-lib'
p36
NsS'arm-cpu'
p37
g2
sS'compile-thumb'
p38
NsS'no-ide'
p39
NsS'msvc-version'
p40
S'6.0'
p41
sS'arm'
p42
NsS'builddir'
p43
g2
sS'compile-debug-as-release'
p44
I0
sS'brief'
p45
NsS'dll'
p46
NsS'buildenv-toolset'
p47
S'WP8DEV'
p48
sS'version'
p49
NsS'ccache'
p50
I0
sS'offline'
p51
NsS'ios-version'
p52
g2
sS'jobs'
p53
I0
sS'linkflags'
p54
NsS'quick'
p55
NsS'done_defaults'
p56
I1
sS'path'
p57
NsS's3e-data-dir'
p58
S'c:/Users/Pietro/Documents/GitHub/Patriot-Missile-Defense\\data'
p59
sS'enable-exceptions'
p60
NsS'osx-dll'
p61
NsS'extension'
p62
g2
sS'no-vc6'
p63
NsS'non-interactive'
p64
NsS'win32-console'
p65
NsS'nds'
p66
NsS'dist-format'
p67
g2
sS's3e-force-arch'
p68
NsS'dump_defines'
p69
NsS'verbose'
p70
I0
sS'psp-minis'
p71
NsS'gcc-version'
p72
g2
sS'arm-debugger'
p73
g2
sS'use_temp_extension'
p74
NsS'log'
p75
NsS'no-strip'
p76
NsS'rebuild'
p77
NsS'win32-simulator-dll'
p78
NsS'strict'
p79
NsS'enable-global-path'
p80
NsS'iphone'
p81
NsS'cflags'
p82
NsS'dist-dir'
p83
g2
sS'jflags'
p84
NsS'distcc'
p85
NsS'external-compiler'
p86
NsS'no-distcc'
p87
NsS'preinclude'
p88
NsS'using_sdk'
p89
I01
sS'nologo'
p90
NsS'warn-level'
p91
I2
sS'mips_dbg_exe'
p92
S'c:\\marmalade\\6.3\\s3e\\makefile_builder\\tool_launcher.exe'
p93
sS'mkb_in'
p94
S'c:/Users/Pietro/Documents/GitHub/Patriot-Missile-Defense/app.mkb'
p95
sS'arm_dbg_exe'
p96
S'c:/marmalade/6.3/s3e\\bin\\armdebug.exe'
p97
sS'android_x86_dbg_exe'
p98
g93
sS'test-config'
p99
g2
sS'list-targets'
p100
NsS'arm_rel_exe'
p101
g93
sS'makedeps'
p102
NsS'android_x86_rel_exe'
p103
g93
sS'default-buildenv'
p104
S'VC11XWP'
p105
sS'x86_rel_exe'
p106
g14
sS'preprocess-java'
p107
NsS'defines'
p108
NsS'lib'
p109
NsS'global_argv'
p110
(lp111
S'C:\\Marmalade\\6.3\\s3e\\makefile_builder\\mkb.py'
p112
aS'--buildenv=VC11XWP'
p113
aS'--buildenv-toolset=WP8DEV'
p114
aS'C:\\Users\\Pietro\\Documents\\GitHub\\Patriot-Missile-Defense\\app.mkb'
p115
asS'make'
p116
NsS'optimise-speed'
p117
NsS'internal'
p118
NsS'enable-stdinc'
p119
NsS'deploy-only'
p120
NsS'x86'
p121
NsS'deploy'
p122
g2
sS'x86_run_exe'
p123
S'c:/marmalade/6.3/s3e\\win32\\s3e_console.exe'
p124
sS'mips'
p125
NsS'incredibuild'
p126
NsS'strict-compile'
p127
NsS'use-auto-subdirs'
p128
NsS'mips_rel_exe'
p129
g93
sS'app-icf'
p130
g2
sS'deployargs'
p131
NsS'mkf_in'
p132
(lp133
S'c:\\marmalade\\6.3\\modules\\iw2d\\iw2d.mkf'
p134
aS'c:\\marmalade\\6.3\\modules\\iwgx\\iwgx.mkf'
p135
aS'c:\\marmalade\\6.3\\modules\\iwgeom\\iwgeom.mkf'
p136
aS'c:\\marmalade\\6.3\\modules\\iwutil\\iwutil.mkf'
p137
aS'c:\\marmalade\\6.3\\modules\\third_party\\libjpeg\\libjpeg.mkf'
p138
aS'c:\\marmalade\\6.3\\modules\\third_party\\libpng\\libpng.mkf'
p139
aS'c:\\marmalade\\6.3\\modules\\third_party\\zlib\\zlib.mkf'
p140
aS'c:\\marmalade\\6.3\\modules\\iwresmanager\\iwresmanager.mkf'
p141
aS'c:\\marmalade\\6.3\\modules\\iwgl\\iwgl.mkf'
p142
aS'c:\\marmalade\\6.3\\modules\\iwgxfont\\iwgxfont.mkf'
p143
aS'c:\\marmalade\\6.3\\modules\\third_party\\tiniconv\\tiniconv.mkf'
p144
aS'c:\\users\\pietro\\documents\\github\\patriot-missile-defense\\app.mkf'
p145
asS'strict-mkb'
p146
NsS'executeargs'
p147
NsS'clean'
p148
NsS'no-asm'
p149
NsS'output-name'
p150
g2
sS'no-modules'
p151
NsS'find_define'
p152
g2
s(dp153
S'c:\\marmalade\\6.3\\s3e\\makefile_builder\\templates\\vc7_suo.pyc'
p154
F1374868032.0
sS'c:\\marmalade\\6.3\\s3e\\makefile_builder\\templates\\win32_sln.pyc'
p155
F1374868032.0
sS'c:\\marmalade\\6.3\\s3e\\makefile_builder\\plugins\\s3e_xcode.pyc'
p156
F1382884931.6718085
sS'c:\\marmalade\\6.3\\s3e\\makefile_builder\\docs\\options.txt'
p157
F1374867152.0
sS'c:\\marmalade\\6.3\\s3e\\makefile_builder\\templates\\qmake.py'
p158
F1374867152.0
sS'c:\\marmalade\\6.3\\s3e\\makefile_builder\\plugins\\s3e_wp8.pyc'
p159
F1374868032.0
sS'c:\\marmalade\\6.3\\s3e\\makefile_builder\\templates\\xcode_pbxuser.py'
p160
F1374867152.0
sS'c:\\marmalade\\6.3\\s3e\\makefile_builder\\plugins\\VisualStudioEmitter.pyc'
p161
F1374868032.0
sS'c:\\marmalade\\6.3\\s3e\\makefile_builder\\deployment.pyc'
p162
F1374868030.0
sS'c:\\marmalade\\6.3\\s3e\\makefile_builder\\templates\\scons.pyc'
p163
F1374868032.0
sS'c:\\marmalade\\6.3\\s3e\\makefile_builder\\plugins\\xcode4_schememanagement.pyc'
p164
F1382884930.9000988
sS'c:\\marmalade\\6.3\\s3e\\makefile_builder\\templates\\win32_vcproj.pyc'
p165
F1374868032.0
sS'c:\\marmalade\\6.3\\s3e\\makefile_builder\\plugins\\deploy.pyc'
p166
F1374868030.0
sS'c:\\marmalade\\6.3\\s3e\\makefile_builder\\plugins\\s3e_qmake.py'
p167
F1374867152.0
sS'c:\\marmalade\\6.3\\s3e\\makefile_builder\\templates'
p168
F1381694861.6650052
sS'c:\\marmalade\\6.3\\s3e\\makefile_builder\\templates\\vc6_opt.pyc'
p169
F1374868032.0
sS'c:\\marmalade\\6.3\\s3e\\makefile_builder\\extensions\\make_dist.py'
p170
F1374867152.0
sS'c:\\marmalade\\6.3\\s3e\\makefile_builder\\templates\\Info.plist'
p171
F1374867152.0
sS'c:\\marmalade\\6.3\\s3e\\makefile_builder\\extensions'
p172
F1381694861.6670065
sS'c:\\marmalade\\6.3\\s3e\\makefile_builder\\mkb_launcher.exe'
p173
F1374867478.0
sS'c:\\marmalade\\6.3\\s3e\\makefile_builder\\templates\\template.suo'
p174
F1374867152.0
sS'c:\\marmalade\\6.3\\s3e\\makefile_builder\\mkb_globals.pyc'
p175
F1374868030.0
sS'c:\\marmalade\\6.3\\s3e\\makefile_builder\\plugins\\XcodeEmitter.py'
p176
F1374867152.0
sS'c:\\marmalade\\6.3\\s3e\\makefile_builder\\templates\\gdb_start.txt'
p177
F1374867152.0
sS'c:\\marmalade\\6.3\\s3e\\makefile_builder\\docs\\deprecated.options.txt'
p178
F1374867152.0
sS'c:\\marmalade\\6.3\\s3e\\makefile_builder\\plugins\\wp8_wp8.pyc'
p179
F1374868032.0
sS'c:\\marmalade\\6.3\\s3e\\makefile_builder\\templates\\mips_linker_script'
p180
F1374867152.0
sS'c:\\marmalade\\6.3\\s3e\\makefile_builder\\templates\\wp8_csproj_user.pyc'
p181
F1374868032.0
sS'c:\\marmalade\\6.3\\s3e\\makefile_builder\\plugins\\vc6_utils.pyc'
p182
F1374868032.0
sS'c:\\marmalade\\6.3\\s3e\\makefile_builder\\templates\\win32_vcxproj.pyc'
p183
F1374868032.0
sS'c:\\marmalade\\6.3\\s3e\\makefile_builder\\mkb_main.pyc'
p184
F1374868030.0
sS'c:\\marmalade\\6.3\\s3e\\makefile_builder\\plugins\\java.pyc'
p185
F1374868032.0
sS'c:\\marmalade\\6.3\\s3e\\makefile_builder\\templates\\xcode4.xcscheme'
p186
F1374867152.0
sS'c:\\marmalade\\6.3\\s3e\\makefile_builder\\plugins\\S3EEmitter.pyc'
p187
F1374868032.0
sS'c:\\marmalade\\6.3\\s3e\\makefile_builder\\mkb.py'
p188
F1374867152.0
sS'c:\\marmalade\\6.3\\s3e\\makefile_builder\\templates\\MainWindow.xib'
p189
F1374867152.0
sS'c:\\marmalade\\6.3\\s3e\\makefile_builder\\mkb_parser.pyc'
p190
F1374868030.0
sS'c:\\marmalade\\6.3\\s3e\\makefile_builder\\templates\\xcode4_DeployTool.xcscheme'
p191
F1374867152.0
sS'c:\\marmalade\\6.3\\s3e\\makefile_builder\\tool_launcher.exe'
p192
F1374867478.0
sS'c:\\marmalade\\6.3\\s3e\\makefile_builder\\mkb_util.pyc'
p193
F1374868030.0
sS'c:\\marmalade\\6.3\\s3e\\makefile_builder\\templates\\linker_script'
p194
F1374867152.0
sS'c:\\marmalade\\6.3\\s3e\\makefile_builder\\templates\\win32_vcxproj_filters.pyc'
p195
F1374868032.0
sS'c:\\marmalade\\6.3\\s3e\\makefile_builder\\mkb_option.pyc'
p196
F1374868030.0
sS'c:\\marmalade\\6.3\\s3e\\makefile_builder\\plugins\\vc7_utils.pyc'
p197
F1374868032.0
sS'c:\\marmalade\\6.3\\s3e\\makefile_builder\\templates\\wp8_sln.pyc'
p198
F1374868032.0
sS'c:\\marmalade\\6.3\\s3e\\makefile_builder\\plugins\\s3e_make.pyc'
p199
F1374868030.0
sS'c:\\marmalade\\6.3\\s3e\\makefile_builder\\plugins\\XcodeEmitter.pyc'
p200
F1382884930.8472919
sS'c:\\marmalade\\6.3\\s3e\\makefile_builder\\docs\\deprecated.defines.txt'
p201
F1374867152.0
sS'c:\\marmalade\\6.3\\s3e\\makefile_builder\\docs'
p202
F1381694862.1687815
sS'c:\\marmalade\\6.3\\s3e\\makefile_builder\\templates\\win32_dsw.pyc'
p203
F1374868032.0
sS'c:\\marmalade\\6.3\\s3e\\makefile_builder\\templates\\template.opt'
p204
F1374867152.0
sS'c:\\marmalade\\6.3\\s3e\\makefile_builder\\docs\\deployment_options.txt'
p205
F1374867152.0
sS'c:\\marmalade\\6.3\\s3e\\makefile_builder\\plugins\\Emitter.pyc'
p206
F1374868032.0
sS'c:\\marmalade\\6.3\\s3e\\makefile_builder\\templates\\wp8_vcxproj.pyc'
p207
F1374868032.0
sS'c:\\marmalade\\6.3\\s3e\\makefile_builder\\docs\\mkb.defines.txt'
p208
F1374867152.0
sS'c:\\marmalade\\6.3\\s3e\\makefile_builder\\templates\\xcode.py'
p209
F1374867152.0
sS'c:\\marmalade\\6.3\\s3e\\makefile_builder\\plugins\\s3e_xcode.py'
p210
F1374867152.0
sS'c:\\marmalade\\6.3\\s3e\\makefile_builder\\templates\\win32_dsp.pyc'
p211
F1374868032.0
sS'c:\\marmalade\\6.3\\s3e\\makefile_builder\\plugins\\osx_scons.pyc'
p212
F1374868032.0
sS'c:\\marmalade\\6.3\\s3e\\makefile_builder\\plugins\\SConsEmitter.pyc'
p213
F1374868032.0
sS'c:\\marmalade\\6.3\\s3e\\makefile_builder\\plugins\\s3e_web.pyc'
p214
F1374868030.0
sS'c:\\marmalade\\6.3\\s3e\\makefile_builder\\templates\\make.py'
p215
F1374867152.0
sS'c:\\marmalade\\6.3\\s3e\\makefile_builder\\templates\\wp8_csproj.pyc'
p216
F1374868032.0
sS'c:\\marmalade\\6.3\\s3e\\makefile_builder\\templates\\vc8_user.pyc'
p217
F1374868032.0
sS'c:\\marmalade\\6.3\\s3e\\makefile_builder\\plugins\\osx_xcode.pyc'
p218
F1374868032.0
sS'c:\\marmalade\\6.3\\s3e\\makefile_builder\\plugins'
p219
F1382884931.6708014
sS'c:\\marmalade\\6.3\\s3e\\makefile_builder\\plugins\\s3e_vc6.pyc'
p220
F1374868030.0
sS'c:\\marmalade\\6.3\\s3e\\makefile_builder\\plugins\\MakeEmitter.pyc'
p221
F1374868032.0
sS'c:\\marmalade\\6.3\\s3e\\makefile_builder\\templates\\vc10_user.pyc'
p222
F1374868032.0
sS'c:\\marmalade\\6.3\\s3e\\makefile_builder\\plugins\\s3e_qmake.pyc'
p223
F1382884931.1602416
sS'c:\\marmalade\\6.3\\s3e\\makefile_builder\\plugins\\iphone.pyc'
p224
F1374868032.0
sS'c:\\marmalade\\6.3\\s3e\\makefile_builder\\plugins\\xcode4_schememanagement.py'
p225
F1374867152.0
sS'c:\\marmalade\\6.3\\s3e\\makefile_builder\\templates\\rvct_linker_script'
p226
F1374867152.0
sS'c:\\marmalade\\6.3\\s3e\\makefile_builder\\plugins\\s3e_scons.pyc'
p227
F1374868030.0
sS'c:\\marmalade\\6.3\\s3e\\makefile_builder\\plugins\\null.pyc'
p228
F1374868032.0
sS'c:\\marmalade\\6.3\\s3e\\makefile_builder\\plugins\\win32_vc6.pyc'
p229
F1374868032.0
sS'c:\\marmalade\\6.3\\s3e\\makefile_builder\\docs\\parse_options.pyc'
p230
F1374868032.0
sS'c:\\marmalade\\6.3\\s3e\\makefile_builder\\templates\\qmake_user.py'
p231
F1374867152.0
sS'c:\\marmalade\\6.3\\s3e\\makefile_builder\\plugins\\linux_scons.pyc'
p232
F1374868032.0
sccopy_reg
_reconstructor
p233
(cmkb_main
MkbFile
p234
c__builtin__
object
p235
Ntp236
Rp237
(dp238
g3
(lp239
sS'target_name'
p240
S'app'
p241
sS'current_file'
p242
g95
sS'package_path'
p243
(lp244
sS'post_build'
p245
(lp246
(lp247
S'c:/marmalade/6.3/s3e/tools'
p248
aS'C:\\Marmalade\\6.3\\s3e\\python\\python.exe .\\process_map.py "$(TargetPath)"'
p249
aa(S'c:\\marmalade\\6.3\\s3e'
p250
S'"c:\\marmalade\\6.3\\s3e\\bin\\s3e_plink" -l "$(TargetPath)" -p WP8'
p251
g121
tp252
asS'librarys'
p253
(lp254
g233
(cmkb_main
Library
p255
g235
Ntp256
Rp257
(dp258
S'name'
p259
S'jpeg'
p260
sS'expand_name'
p261
I01
sS'include_spec_rvct_objs'
p262
(lp263
sS'include_all_objs'
p264
NsS'share_arm'
p265
NsS'arch'
p266
NsS'nodebug'
p267
I00
sg25
Nsbag233
(g255
g235
Ntp268
Rp269
(dp270
g259
S'z'
p271
sg261
I01
sg262
g263
sg264
Nsg265
Nsg266
Nsg267
I00
sg25
Nsbag233
(g255
g235
Ntp272
Rp273
(dp274
g259
S'png'
p275
sg261
I01
sg262
g263
sg264
Nsg265
Nsg266
Nsg267
I00
sg25
Nsbag233
(g255
g235
Ntp276
Rp277
(dp278
g259
S'iwutil'
p279
sg261
I01
sg262
g263
sg264
Nsg265
I01
sg266
Nsg267
I00
sg25
Nsbag233
(g255
g235
Ntp280
Rp281
(dp282
g259
S'iwgeom'
p283
sg261
I01
sg262
g263
sg264
Nsg265
I01
sg266
Nsg267
I00
sg25
Nsbag233
(g255
g235
Ntp284
Rp285
(dp286
g259
S'iwresmanager'
p287
sg261
I01
sg262
g263
sg264
Nsg265
I01
sg266
Nsg267
I00
sg25
Nsbag233
(g255
g235
Ntp288
Rp289
(dp290
g259
S'ATI_Compress_MT_VC7.lib'
p291
sg261
I00
sg262
g263
sg264
Nsg265
Nsg266
S'x86'
p292
sg267
I00
sg25
Nsbag233
(g255
g235
Ntp293
Rp294
(dp295
g259
S'iwgx'
p296
sg261
I01
sg262
g263
sg264
Nsg265
I01
sg266
Nsg267
I00
sg25
Nsbag233
(g255
g235
Ntp297
Rp298
(dp299
g259
S'iwgl'
p300
sg261
I01
sg262
g263
sg264
Nsg265
Nsg266
Nsg267
I00
sg25
Nsbag233
(g255
g235
Ntp301
Rp302
(dp303
g259
S'iwgxfont'
p304
sg261
I01
sg262
g263
sg264
Nsg265
I01
sg266
Nsg267
I00
sg25
Nsbag233
(g255
g235
Ntp305
Rp306
(dp307
g259
S'tiniconv'
p308
sg261
I01
sg262
g263
sg264
Nsg265
Nsg266
Nsg267
I00
sg25
Nsbag233
(g255
g235
Ntp309
Rp310
(dp311
g259
S'iw2d'
p312
sg261
I01
sg262
g263
sg264
Nsg265
I01
sg266
Nsg267
I00
sg25
Nsbag233
(g255
g235
Ntp313
Rp314
(dp315
g259
S's3e_cpp'
p316
sg261
I01
sg262
(lp317
sg264
I00
sg265
I00
sg266
Nsg267
I00
sg25
Nsbag233
(g255
g235
Ntp318
Rp319
(dp320
g259
S's3e'
p321
sg261
I01
sg262
(lp322
S'iwcrt.o'
p323
asg264
I00
sg265
I00
sg266
Nsg267
I00
sg25
Nsbag233
(g255
g235
Ntp324
Rp325
(dp326
g259
S's3e_api'
p327
sg261
I01
sg262
g317
sg264
I00
sg265
I00
sg266
S'x86'
p328
sg267
I00
sg25
Nsbag233
(g255
g235
Ntp329
Rp330
(dp331
g259
S's3e_api'
p332
sg261
I01
sg262
g317
sg264
I00
sg265
I00
sg266
S'!x86'
p333
sg267
I1
sg25
Nsbag233
(g255
g235
Ntp334
Rp335
(dp336
g259
S'stdc++'
p337
sg261
I00
sg262
g317
sg264
I00
sg265
I00
sg266
S'mips'
p338
sg267
I00
sg25
Nsbag233
(g255
g235
Ntp339
Rp340
(dp341
g259
S'c'
p342
sg261
I00
sg262
g317
sg264
I00
sg265
I00
sg266
S'mips'
p343
sg267
I00
sg25
Nsbag233
(g255
g235
Ntp344
Rp345
(dp346
g259
S'm'
p347
sg261
I00
sg262
g317
sg264
I00
sg265
I00
sg266
S'mips'
p348
sg267
I00
sg25
Nsbag233
(g255
g235
Ntp349
Rp350
(dp351
g259
S'gcc'
p352
sg261
I00
sg262
g317
sg264
I00
sg265
I00
sg266
S'mips'
p353
sg267
I00
sg25
Nsbag233
(g255
g235
Ntp354
Rp355
(dp356
g259
S'stdc++'
p357
sg261
I00
sg262
g317
sg264
I00
sg265
I00
sg266
S'gcc_x86_android'
p358
sg267
I00
sg25
Nsbag233
(g255
g235
Ntp359
Rp360
(dp361
g259
g342
sg261
I00
sg262
g317
sg264
I00
sg265
I00
sg266
S'gcc_x86_android'
p362
sg267
I00
sg25
Nsbag233
(g255
g235
Ntp363
Rp364
(dp365
g259
g347
sg261
I00
sg262
g317
sg264
I00
sg265
I00
sg266
S'gcc_x86_android'
p366
sg267
I00
sg25
Nsbag233
(g255
g235
Ntp367
Rp368
(dp369
g259
S'gcc'
p370
sg261
I00
sg262
g317
sg264
I00
sg265
I00
sg266
S'gcc_x86_android'
p371
sg267
I00
sg25
NsbasS'library_paths'
p372
(lp373
g233
(cmkb_main
LibraryPath
p374
g235
Ntp375
Rp376
(dp377
S'expand_path'
p378
I01
sS'add_cpu_variant'
p379
I00
sg259
S'c:/marmalade/6.3/modules/third_party/libjpeg'
p380
sbag233
(g374
g235
Ntp381
Rp382
(dp383
g378
I01
sg379
I00
sg259
S'c:/marmalade/6.3/modules/third_party/zlib'
p384
sbag233
(g374
g235
Ntp385
Rp386
(dp387
g378
I01
sg379
I00
sg259
S'c:/marmalade/6.3/modules/third_party/libpng'
p388
sbag233
(g374
g235
Ntp389
Rp390
(dp391
g378
I01
sg379
I00
sg259
S'c:/marmalade/6.3/modules/iwutil'
p392
sbag233
(g374
g235
Ntp393
Rp394
(dp395
g378
I01
sg379
I00
sg259
S'c:/marmalade/6.3/modules/iwgeom'
p396
sbag233
(g374
g235
Ntp397
Rp398
(dp399
g378
I01
sg379
I00
sg259
S'c:/marmalade/6.3/modules/iwresmanager'
p400
sbag233
(g374
g235
Ntp401
Rp402
(dp403
g378
I00
sg379
I00
sg259
S'c:/marmalade/6.3/modules/iwgx/atitools'
p404
sbag233
(g374
g235
Ntp405
Rp406
(dp407
g378
I01
sg379
I00
sg259
S'c:/marmalade/6.3/modules/iwgx'
p408
sbag233
(g374
g235
Ntp409
Rp410
(dp411
g378
I01
sg379
I00
sg259
S'c:/marmalade/6.3/modules/iwgl'
p412
sbag233
(g374
g235
Ntp413
Rp414
(dp415
g378
I01
sg379
I00
sg259
S'c:/marmalade/6.3/modules/iwgxfont'
p416
sbag233
(g374
g235
Ntp417
Rp418
(dp419
g378
I01
sg379
I00
sg259
S'c:/marmalade/6.3/modules/third_party/tiniconv'
p420
sbag233
(g374
g235
Ntp421
Rp422
(dp423
g378
I01
sg379
I00
sg259
S'c:/marmalade/6.3/modules/iw2d'
p424
sbag233
(g374
g235
Ntp425
Rp426
(dp427
g378
I01
sg379
I00
sg259
S'c:/marmalade/6.3/s3e'
p428
sbasS'macros'
p429
(dp430
S'IW_USE_CALLSTACK'
p431
NsS'IW_SDK'
p432
NsS'I3D_PLATFORM_S3E'
p433
NsS'IW_MKF_APP'
p434
NsS'IW_MKF_LIBJPEG'
p435
NsS'I3D_OS_S3E'
p436
NsS'IW_MKF_TINICONV'
p437
NsS'IW_APP_VERSION'
p438
S'"1.0"'
p439
sS'IW_MKF_IWRESMANAGER'
p440
NsS'IW_MKF_IWUTIL'
p441
NsS'IW_MKF_IWGEOM'
p442
NsS'IW_ASSERTION_CHANNEL_2D'
p443
S'1'
p444
sS'IW_APP_NAME'
p445
S'"app"'
p446
sS'IW_MKF_IWGXFONT'
p447
NsS'IW_PLATFORM_S3E'
p448
NsS'IW_MKF_ZLIB'
p449
NsS'IW_MKF_IWGX'
p450
NsS'IW_USE_ASSERTIONS'
p451
NsS'_CRT_SECURE_NO_DEPRECATE'
p452
NsS'IW_MKF_IWGL'
p453
NsS'IW_MKF_LIBPNG'
p454
NsS'IW_DEBUG'
p455
NsS'IW_USE_TRACING'
p456
NsS'S3E_INCLUDE_LEGACY'
p457
NsS'__S3E__'
p458
NsS'IW_MKF_IW2D'
p459
NssS'done_warnings'
p460
(dp461
sS'subprojects'
p462
(dp463
g142
S'iwgl'
p464
sg143
S'iwgxfont'
p465
sg136
S'iwgeom'
p466
sg144
S'tiniconv'
p467
sg138
S'libjpeg'
p468
sg141
S'iwresmanager'
p469
sg139
S'libpng'
p470
sg137
S'iwutil'
p471
sg145
S'app'
p472
sg134
S'iw2d'
p473
sg135
S'iwgx'
p474
sg140
S'zlib'
p475
ssS'deployments'
p476
(dp477
S'Default'
p478
g233
(cdeployment
Deployment
p479
g235
Ntp480
Rp481
(dp482
S'got_version'
p483
I0
sS'assets'
p484
S'default'
p485
sS'mkb'
p486
g237
sS'target'
p487
Nsg266
(lp488
sS'options'
p489
(dp490
S'iphone-link-lib'
p491
(lp492
sS'game-icf'
p493
NsS'symbian-run-on-install'
p494
NsS'iphone-icon-high-res'
p495
NsS'win32-pref-windowposy'
p496
NsS'win32-pref-windowposx'
p497
NsS'bada-appsecret'
p498
NsS'roku-requires-audiometadata'
p499
NsS'playbook-author'
p500
NsS'winmobile-icon32'
p501
NsS'linux-ext-lib'
p502
(lp503
sS'target-folder'
p504
NsS'iphone-splashscreen-landscape'
p505
NsS'wp8-exclude-720p'
p506
NsS'psp-discversion'
p507
NsS'lgtv-use-drm'
p508
NsS'nds-bannertitle-sp'
p509
NsS'symbian-platsecflags'
p510
NsS'psp-producer'
p511
NsS'blackberry-playbook-icon'
p512
NsS'iphone-icon-ipad-search-high-res'
p513
NsS'iphone-provisioning-profile'
p514
NsS'copyright'
p515
NsS'android-extra-application-manifest'
p516
(lp517
sS'winmobile-png45'
p518
NsS'iphone-link-libdir'
p519
(lp520
sS'symbian-cert'
p521
NsS'nds-bannertitle-hn'
p522
NsS'brew-depends'
p523
NsS'wp8-author'
p524
NsS'winmobile-nouninstall'
p525
NsS'android-icon-hdpi'
p526
NsS'iphone-ipad-only'
p527
NsS'iphone-splash-full-orient'
p528
NsS'wp8-tile-fliptemplate-supports-large'
p529
NsS'iphone-bundle-url-name'
p530
NsS'iphone-show-status-bar'
p531
NsS'wp8-tile-fliptemplate-large-front-image'
p532
NsS'android-aliasname'
p533
NsS'iphone-splash-retina-generate'
p534
NsS'psp-dlgmanual'
p535
NsS'iphone-backgroundmode-audio'
p536
NsS'android-pkgname'
p537
NsS'webos-memory'
p538
NsS'brew-uid'
p539
NsS'android-keypass'
p540
NsS'symbian-locationsupport'
p541
NsS'wp8-tile-fliptemplate-large-back-content'
p542
NsS'iphone-signing-host'
p543
NsS'nds-bannertitle-jp'
p544
NsS'name'
p545
NsS'iphone-link-libdirs'
p546
(lp547
sS'osx-info-plist'
p548
NsS'symbian-icon1-format'
p549
NsS'uiq3-uid'
p550
NsS'psp-dlgcontentid'
p551
NsS'roku-splash-screen-sd'
p552
NsS'auto-derbh'
p553
NsS'bada-use-partner-privileges'
p554
NsS'nds-bannertitle-it'
p555
NsS'roku-icon-side-sd'
p556
NsS'blackberry-authorid'
p557
NsS'nds-publicsavedatasize'
p558
NsS'splashscreen'
p559
NsS'brew-mif'
p560
NsS'symbian-icon2-format'
p561
NsS'long-caption'
p562
NsS'iphone-icon-settings-high-res'
p563
NsS'uiq3-icon1-mask'
p564
NsS'iphone-development-cert'
p565
NsS'winmobile-icon16'
p566
NsS's3e-compression'
p567
NsS'wp8-description'
p568
NsS'iphone-link-opts'
p569
(lp570
sS'wp8-tile-fliptemplate-back-content'
p571
NsS'iphone-region'
p572
NsS'uiq3-icon3-mask'
p573
NsS'winmobile-start-menu-folder'
p574
NsS'roku-splash-min-time'
p575
NsS'brew-encoding'
p576
NsS'roku-requires-bluetooth'
p577
NsS'symbian-icon1'
p578
NsS'symbian-icon2'
p579
NsS'psp-parentallevel'
p580
NsS'wp8-tile-fliptemplate-medium-front-image'
p581
NsS'wp8-tile-fliptemplate-large-back-image'
p582
NsS'version'
p583
NsS'caption'
p584
NsS'bada-manifest'
p585
NsS'provider'
p586
NsS'iphone-prerendered-icon'
p587
NsS'iphone-appid'
p588
NsS'playbook-keystore'
p589
NsS'nds-initialcode'
p590
NsS'priv-sign-key'
p591
NsS'android-external-jars'
p592
(lp593
sS'blackberry-cskpass'
p594
NsS'iphone-persistent-wifi'
p595
NsS'symbian7-uid'
p596
NsS'winmobile-setup-dll'
p597
NsS'wp8-exclude-wvga'
p598
NsS'symbian-osexecsupport'
p599
NsS'android-install-location'
p600
NsS'olddeploytoolstyle'
p601
NsS'nds-privatesavedatasize'
p602
NsS'symbian9-uid'
p603
NsS'nds-bannertitle-cn'
p604
NsS'winmobile-trace-file'
p605
NsS'roku-splash-color'
p606
NsS'roku-icon-focus-hd'
p607
NsS'android-icon-ldpi'
p608
NsS'iphone-distribution-key'
p609
NsS'networking'
p610
NsS'winmobile-install-folder'
p611
NsS'android-external-res'
p612
(lp613
sS'winmobile-ampd-part-number'
p614
NsS'android-icon-gallery'
p615
NsS'bada-signed'
p616
NsS'android-supports-gl-texture'
p617
(lp618
sS'iphone-apple-wwdr-cert'
p619
NsS'psp-snd0'
p620
NsS'iphone-extra-sections'
p621
NsS'blackberry-keystore'
p622
NsS'iphone-nosign'
p623
NsS'brew-priviledges'
p624
NsS'psp-icon1'
p625
NsS'iphone-icon-large'
p626
NsS'android-storepass'
p627
NsS'playbook-storepass'
p628
NsS'iphone-info-plist'
p629
NsS'wp8-product-id'
p630
NsS'android-extra-manifest'
p631
(lp632
sS'wp8-exclude-low-mem'
p633
NsS'android-custom-activity'
p634
NsS'version-minor'
p635
NsS'iphone-icon-ipad'
p636
NsS'bada-appid'
p637
NsS'psp-appversion'
p638
NsS'roku-hidden'
p639
NsS'psp-copyright'
p640
NsS'symbian-maxheapsize'
p641
NsS'embed-icf'
p642
NsS'psp-titlename'
p643
NsS'symbian-icon1-mask'
p644
NsS'nds-makercode'
p645
NsS'symbian8-uid'
p646
NsS'webos-appinfo'
p647
NsS'symbian-cert-key'
p648
NsS'android-icon'
p649
NsS'webos-appid'
p650
NsS'android-icon-nonstandard'
p651
NsS'roku-icon-side-hd'
p652
NsS'iphone-icon-settings'
p653
NsS'wp8-tile-fliptemplate-medium-back-image'
p654
NsS'iphone-distribution-cert'
p655
NsS'osx-icon'
p656
NsS'nds-titlename'
p657
NsS'splashscreen-auto-onblack'
p658
NsS'manufacturer'
p659
NsS'nds-romheadertemplate'
p660
NsS'webos-icon'
p661
NsS'nds-bannertitle-en'
p662
NsS'win32-ext-dll'
p663
(lp664
sS'psp-dlgicon0'
p665
NsS'iphone-development-key'
p666
NsS'psp-discid'
p667
NsS'winmobile-icon48'
p668
NsS'android-manifest'
p669
NsS'playbook-cskpass'
p670
NsS'android-so'
p671
(lp672
sS'wp8-higher-mem'
p673
NsS'bada-splash'
p674
NsS'version-revision'
p675
NsS'roku-icon-focus-sd'
p676
NsS'android-icon-mdpi'
p677
NsS'android-keystore'
p678
NsS'osx-ext-dll'
p679
(lp680
sS'version-string'
p681
NsS'winmobile-png90'
p682
NsS'roku-splash-screen-hd'
p683
NsS'iphone-icon-ipad-high-res'
p684
NsS'iphone-disable-ipad'
p685
NsS'uiq3-icon1-format'
p686
NsS'iphone-bundle-url-schemes'
p687
NsS'nds-icon'
p688
NsS'roku-screensaver-private'
p689
NsS'wp8-tile-fliptemplate-small-image'
p690
NsS'winmobile-png60'
p691
NsS'playbook-authorid'
p692
NsS'android_extra_strings'
p693
NsS'playbook-icon'
p694
NsS'uid'
p695
NsS'icon'
p696
S'c:/users/pietro/documents/github/patriot-missile-defense/icons'
p697
sS'iphone-signing-identity'
p698
NsS'brew-icon-medium'
p699
NsS'roku-persist-quota'
p700
NsS'symbian-icon2-mask-black'
p701
NsS'winmobile-icon64'
p702
NsS'blackberry-phone-icon'
p703
NsS'iphone-enable-4inch-retina'
p704
NsS'pkguid-as-uid'
p705
NsS'symbian-icon1-mask-black'
p706
NsS'uiq3-icon2'
p707
NsS'uiq3-icon2-format'
p708
NsS'pub-sign-key'
p709
NsS'nds-bannertitle-fr'
p710
NsS'win32-pref-windowtitle'
p711
NsS'symbian-disable-ecompxl'
p712
NsS'psp-dlgprotectdocument'
p713
NsS'symbian-soundrecordsupport'
p714
NsS'splashscreen-use-all'
p715
NsS'roku-screensaver-title'
p716
NsS'brew-clsid'
p717
NsS'wp8-genre-isgame'
p718
NsS'brew-icon-small'
p719
NsS'psp-dlgpic2'
p720
NsS'bada-icon'
p721
NsS'psp-dlgpic0'
p722
NsS'psp-pic0'
p723
NsS'psp-pic1'
p724
NsS'iphone-icon'
p725
NsS'psp-icon0'
p726
NsS'blackberry-permissions-access-shared'
p727
NsS'uiq3-icon3-format'
p728
NsS'version-major'
p729
NsS'iphone_bundle_localisations'
p730
NsS'winmobile-icon'
p731
NsS'roku-requires-mkv'
p732
NsS'blackberry-author'
p733
NsS'symbian-keypwd'
p734
NsS'iphone-no-splash'
p735
NsS'playbook-access-shared'
p736
NsS'psp-dlghealthwarning'
p737
NsS'iphone-link-libs'
p738
(lp739
sS'wp8-custom-manifest'
p740
NsS'iphone-splash'
p741
NsS'nds-bannertitle-ge'
p742
NsS'android_icon_gallery'
p743
NsS'brew-icon-large'
p744
NsS'iphone-app-fonts'
p745
NsS'symbian-icon2-mask'
p746
NsS'iphone-sign-for-distribution'
p747
NsS'android-unsigned'
p748
NsS'arch'
p749
NsS'uiq3-icon3'
p750
NsS'wp8-publisher-id'
p751
NsS'uiq3-icon1'
p752
NsS'itunes-artwork'
p753
NsS'android-x86'
p754
NsS'win32-icon'
p755
NsS'assets'
p756
NsS'symbian-key'
p757
NsS'app-icf'
p758
NsS'blackberry-storepass'
p759
NsS'winmobile-cab-compress'
p760
NsS'wp8-tile-fliptemplate-back-title'
p761
NsS'wp8-custom-manifest-fill'
p762
NsS'wp8-exclude-wxga'
p763
NsS'brew-compress-loader'
p764
NsS'wp8-tile-fliptemplate-title'
p765
NsS'uiq3-icon2-mask'
p766
NsS'iphone-icon-ipad-search'
p767
NsS'symbian-icon-svg'
p768
NsS'android-extra-strings'
p769
NsS'iphone-splashscreen-portrait'
p770
NsS'iphone-bundle-localisations'
p771
Nssg259
g478
sbsS'artbuild'
p772
g233
(g479
g235
Ntp773
Rp774
(dp775
g483
I0
sg484
S'artbuild'
p776
sg486
g237
sg487
(lp777
S'win32'
p778
asg266
(lp779
sg489
(dp780
g491
(lp781
sg493
Nsg494
Nsg495
Nsg496
Nsg497
Nsg498
Nsg499
Nsg500
Nsg501
Nsg624
Nsg502
(lp782
sg504
Nsg505
Nsg506
Nsg507
Nsg508
Nsg509
Nsg510
Nsg511
Nsg512
Nsg513
Nsg514
Nsg515
Nsg516
(lp783
sg518
Nsg519
(lp784
sg521
Nsg522
Nsg523
Nsg524
Nsg525
Nsg526
Nsg527
Nsg528
Nsg529
Nsg530
Nsg531
Nsg532
Nsg533
Nsg534
Nsg535
Nsg536
Nsg537
Nsg538
Nsg539
Nsg540
Nsg541
Nsg542
Nsg543
Nsg544
Nsg545
Nsg546
(lp785
sg548
Nsg549
Nsg550
Nsg551
Nsg552
Nsg553
Nsg554
Nsg555
Nsg556
Nsg557
Nsg558
Nsg559
Nsg560
Nsg561
Nsg562
Nsg563
Nsg564
Nsg566
Nsg567
Nsg568
Nsg569
(lp786
sg571
Nsg572
Nsg573
Nsg669
Nsg574
Nsg575
Nsg576
Nsg577
Nsg578
Nsg579
Nsg580
Nsg581
Nsg582
Nsg583
Nsg585
Nsg586
Nsg587
Nsg588
Nsg589
Nsg590
Nsg591
Nsg592
(lp787
sg594
Nsg595
Nsg596
Nsg597
Nsg741
Nsg599
Nsg600
Nsg601
Nsg602
Nsg603
Nsg604
Nsg605
Nsg606
Nsg607
Nsg608
Nsg609
Nsg610
Nsg611
Nsg612
(lp788
sg614
Nsg615
Nsg616
Nsg617
(lp789
sg619
Nsg620
Nsg621
Nsg622
Nsg623
Nsg584
Nsg625
Nsg626
Nsg627
Nsg628
Nsg629
Nsg630
Nsg631
(lp790
sg690
Nsg633
Nsg634
Nsg635
Nsg636
Nsg637
Nsg638
Nsg639
Nsg640
Nsg641
Nsg642
Nsg643
Nsg644
Nsg645
Nsg646
Nsg647
Nsg648
Nsg649
Nsg650
Nsg651
Nsg652
Nsg653
Nsg654
Nsg655
Nsg656
Nsg657
Nsg658
Nsg659
Nsg660
Nsg661
Nsg662
Nsg663
(lp791
sg665
Nsg666
Nsg667
Nsg668
Nsg748
Nsg670
Nsg671
(lp792
sg673
Nsg674
Nsg675
Nsg676
Nsg677
Nsg678
Nsg679
(lp793
sg681
Nsg682
Nsg683
Nsg684
Nsg685
Nsg686
Nsg687
Nsg688
Nsg689
Nsg565
Nsg691
Nsg692
Nsg693
Nsg694
Nsg695
Nsg696
Nsg698
Nsg699
Nsg700
Nsg701
Nsg702
Nsg703
Nsg704
Nsg705
Nsg706
Nsg707
Nsg708
Nsg709
Nsg710
Nsg711
Nsg712
Nsg714
Nsg715
Nsg716
Nsg717
Nsg718
Nsg719
Nsg720
Nsg721
Nsg722
Nsg723
Nsg724
Nsg725
Nsg726
Nsg727
Nsg728
Nsg729
Nsg730
Nsg731
Nsg732
Nsg733
Nsg734
Nsg735
Nsg736
Nsg737
Nsg738
(lp794
sg740
Nsg598
Nsg742
Nsg743
Nsg744
Nsg745
Nsg746
Nsg747
Nsg713
Nsg749
Nsg750
Nsg751
Nsg752
Nsg753
Nsg754
Nsg755
Nsg756
Nsg757
Nsg758
Nsg759
Nsg760
Nsg761
Nsg762
Nsg763
Nsg764
Nsg765
Nsg766
Nsg767
Nsg768
Nsg769
Nsg770
Nsg771
Nssg259
g772
sbssS'platform'
p795
S'S3E'
p796
sg49
S'1.0'
p797
sS'arcade_platform'
p798
g2
sS'extensions'
p799
(dp800
sS'source_groups_tree'
p801
(dp802
S'(libpng)'
p803
(dp804
S'h'
p805
(dp806
S'c:/marmalade/6.3/modules/third_party/libpng/h/png.h'
p807
(lp808
I1
a(dp809
asS'c:/marmalade/6.3/modules/third_party/libpng/h/pngconf.h'
p810
(lp811
I1
ag809
assS'c:/marmalade/6.3/modules/third_party/libpng/libpng.mkf'
p812
(lp813
I1
a(dp814
assS'(libjpeg)'
p815
(dp816
g805
(dp817
S'c:/marmalade/6.3/modules/third_party/libjpeg/h/jmemsys.h'
p818
(lp819
I1
a(dp820
asS'c:/marmalade/6.3/modules/third_party/libjpeg/h/jinclude.h'
p821
(lp822
I1
ag820
asS'c:/marmalade/6.3/modules/third_party/libjpeg/h/jconfig.h'
p823
(lp824
I1
ag820
asS'c:/marmalade/6.3/modules/third_party/libjpeg/h/cderror.h'
p825
(lp826
I1
ag820
asS'c:/marmalade/6.3/modules/third_party/libjpeg/h/transupp.h'
p827
(lp828
I1
ag820
asS'c:/marmalade/6.3/modules/third_party/libjpeg/h/jmorecfg.h'
p829
(lp830
I1
ag820
asS'c:/marmalade/6.3/modules/third_party/libjpeg/h/jerror.h'
p831
(lp832
I1
ag820
asS'c:/marmalade/6.3/modules/third_party/libjpeg/h/jversion.h'
p833
(lp834
I1
ag820
asS'c:/marmalade/6.3/modules/third_party/libjpeg/h/cdjpeg.h'
p835
(lp836
I1
ag820
asS'c:/marmalade/6.3/modules/third_party/libjpeg/h/jchuff.h'
p837
(lp838
I1
ag820
asS'c:/marmalade/6.3/modules/third_party/libjpeg/h/jdct.h'
p839
(lp840
I1
ag820
asS'c:/marmalade/6.3/modules/third_party/libjpeg/h/jpeglib.h'
p841
(lp842
I1
ag820
asS'c:/marmalade/6.3/modules/third_party/libjpeg/h/jdhuff.h'
p843
(lp844
I1
ag820
asS'c:/marmalade/6.3/modules/third_party/libjpeg/h/jpegint.h'
p845
(lp846
I1
ag820
assS'c:/marmalade/6.3/modules/third_party/libjpeg/libjpeg.mkf'
p847
(lp848
I1
a(dp849
assS'(tiniconv)'
p850
(dp851
S'c:/marmalade/6.3/modules/third_party/tiniconv/source/tiniconv.h'
p852
(lp853
I1
a(dp854
asS'c:/marmalade/6.3/modules/third_party/tiniconv/source/tiniconv_int.h'
p855
(lp856
I1
ag854
asS'c:/marmalade/6.3/modules/third_party/tiniconv/tiniconv.mkf'
p857
(lp858
I1
a(dp859
assS'(app)'
p860
(dp861
S'Source'
p862
(dp863
S'c:/users/pietro/documents/github/patriot-missile-defense/source/game.cpp'
p864
(lp865
I1
a(dp866
asS'c:/users/pietro/documents/github/patriot-missile-defense/source/localise.h'
p867
(lp868
I1
ag866
asS'c:/users/pietro/documents/github/patriot-missile-defense/source/effects.cpp'
p869
(lp870
I1
ag866
asS'c:/users/pietro/documents/github/patriot-missile-defense/source/titlescreen.h'
p871
(lp872
I1
ag866
asS'c:/users/pietro/documents/github/patriot-missile-defense/source/main.cpp'
p873
(lp874
I1
ag866
asS'c:/users/pietro/documents/github/patriot-missile-defense/source/localise.cpp'
p875
(lp876
I1
ag866
asS'c:/users/pietro/documents/github/patriot-missile-defense/source/game.h'
p877
(lp878
I1
ag866
asS'c:/users/pietro/documents/github/patriot-missile-defense/source/rendering.cpp'
p879
(lp880
I1
ag866
asS'c:/users/pietro/documents/github/patriot-missile-defense/source/effects.h'
p881
(lp882
I1
ag866
asS'c:/users/pietro/documents/github/patriot-missile-defense/source/rendering.h'
p883
(lp884
I1
ag866
assS'Data'
p885
(dp886
S'c:/users/pietro/documents/github/patriot-missile-defense/data/resources.group'
p887
(lp888
I1
ag866
assS'c:/users/pietro/documents/github/patriot-missile-defense/app.mkf'
p889
(lp890
I1
a(dp891
assS"'Marmalade Studio'"
p892
(dp893
S'iwgl'
p894
(dp895
S'c:/marmalade/6.3/modules/iwgl/h/IwGL.h'
p896
(lp897
I1
a(dp898
asS'c:/marmalade/6.3/modules/iwgl/iwgl.mkf'
p899
(lp900
I1
a(dp901
asS'c:/marmalade/6.3/modules/iwgl/docs/iwgl.config.txt'
p902
(lp903
I1
ag898
asS'c:/marmalade/6.3/modules/iwgl/h/IwGLExt.h'
p904
(lp905
I1
ag898
assS'iw2d'
p906
(dp907
S'c:/marmalade/6.3/modules/iw2d/iw2d.mkf'
p908
(lp909
I1
a(dp910
asS'c:/marmalade/6.3/modules/iw2d/docs/iw2d_public.defines.txt'
p911
(lp912
I1
a(dp913
asS'c:/marmalade/6.3/modules/iw2d/h/Iw2D.h'
p914
(lp915
I1
ag913
asS'c:/marmalade/6.3/modules/iw2d/docs/iw2d.config.txt'
p916
(lp917
I1
ag913
assS'iwgxfont'
p918
(dp919
S'c:/marmalade/6.3/modules/iwgxfont/iwgxfont.mkf'
p920
(lp921
I1
a(dp922
asS'c:/marmalade/6.3/modules/iwgxfont/docs/iwgxfont.config.txt'
p923
(lp924
I1
a(dp925
asS'c:/marmalade/6.3/modules/iwgxfont/h/IwGxFontPreparedData.h'
p926
(lp927
I1
ag925
asS'c:/marmalade/6.3/modules/iwgxfont/h/IwGxFontState.h'
p928
(lp929
I1
ag925
asS'c:/marmalade/6.3/modules/iwgxfont/docs/iwgxfont_public.defines.txt'
p930
(lp931
I1
ag925
asS'c:/marmalade/6.3/modules/iwgxfont/h/IwGxFontGlyph.h'
p932
(lp933
I1
ag925
asS'c:/marmalade/6.3/modules/iwgxfont/h/IwGxFontContainer.h'
p934
(lp935
I1
ag925
asS'c:/marmalade/6.3/modules/iwgxfont/h/IwGxFont.h'
p936
(lp937
I1
ag925
asS'c:/marmalade/6.3/modules/iwgxfont/h/IwGxFontTypes.h'
p938
(lp939
I1
ag925
assS'iwgeom'
p940
(dp941
S'c:/marmalade/6.3/modules/iwgeom/h/IwGeomQuat.h'
p942
(lp943
I1
a(dp944
asS'c:/marmalade/6.3/modules/iwgeom/h/IwGeom.h'
p945
(lp946
I1
ag944
asS'c:/marmalade/6.3/modules/iwgeom/h/IwGeomSphere.h'
p947
(lp948
I1
ag944
asS'c:/marmalade/6.3/modules/iwgeom/h/IwGeomVec3.h'
p949
(lp950
I1
ag944
asS'c:/marmalade/6.3/modules/iwgeom/h/IwGeomMat2D.h'
p951
(lp952
I1
ag944
asS'c:/marmalade/6.3/modules/iwgeom/h/IwGeomVec2.h'
p953
(lp954
I1
ag944
asS'c:/marmalade/6.3/modules/iwgeom/h/IwGeomMat.h'
p955
(lp956
I1
ag944
asS'c:/marmalade/6.3/modules/iwgeom/h/IwGeomSQuat.h'
p957
(lp958
I1
ag944
asS'c:/marmalade/6.3/modules/iwgeom/docs/iwgeom.config.txt'
p959
(lp960
I1
ag944
asS'c:/marmalade/6.3/modules/iwgeom/h/IwGeomFIntersect.h'
p961
(lp962
I1
ag944
asS'c:/marmalade/6.3/modules/iwgeom/h/IwGeomVec4.h'
p963
(lp964
I1
ag944
asS'c:/marmalade/6.3/modules/iwgeom/h/IwGeomFBBox.h'
p965
(lp966
I1
ag944
asS'c:/marmalade/6.3/modules/iwgeom/iwgeom.mkf'
p967
(lp968
I1
a(dp969
asS'c:/marmalade/6.3/modules/iwgeom/h/IwGeomPlane.h'
p970
(lp971
I1
ag944
asS'c:/marmalade/6.3/modules/iwgeom/h/IwGeomIntersect.h'
p972
(lp973
I1
ag944
asS'c:/marmalade/6.3/modules/iwgeom/h/IwGeomFVec4.h'
p974
(lp975
I1
ag944
asS'c:/marmalade/6.3/modules/iwgeom/h/IwGeomFMat2D.h'
p976
(lp977
I1
ag944
asS'c:/marmalade/6.3/modules/iwgeom/h/IwGeomSVec4.h'
p978
(lp979
I1
ag944
asS'c:/marmalade/6.3/modules/iwgeom/h/IwGeomCore.h'
p980
(lp981
I1
ag944
asS'c:/marmalade/6.3/modules/iwgeom/h/IwGeomMenu.h'
p982
(lp983
I1
ag944
asS'c:/marmalade/6.3/modules/iwgeom/h/IwGeomFQuat.h'
p984
(lp985
I1
ag944
asS'c:/marmalade/6.3/modules/iwgeom/h/IwGeomSVec3.h'
p986
(lp987
I1
ag944
asS'c:/marmalade/6.3/modules/iwgeom/h/IwGeomFMat.h'
p988
(lp989
I1
ag944
asS'c:/marmalade/6.3/modules/iwgeom/h/IwGeomFVec3.h'
p990
(lp991
I1
ag944
asS'c:/marmalade/6.3/modules/iwgeom/h/IwGeomSqrt.h'
p992
(lp993
I1
ag944
asS'c:/marmalade/6.3/modules/iwgeom/h/IwGeomBBox.h'
p994
(lp995
I1
ag944
asS'c:/marmalade/6.3/modules/iwgeom/h/IwGeomSVec2.h'
p996
(lp997
I1
ag944
asS'c:/marmalade/6.3/modules/iwgeom/h/IwGeomLegacy.h'
p998
(lp999
I1
ag944
asS'c:/marmalade/6.3/modules/iwgeom/h/IwGeomVec.h'
p1000
(lp1001
I1
ag944
asS'c:/marmalade/6.3/modules/iwgeom/h/IwGeomFVec2.h'
p1002
(lp1003
I1
ag944
asS'c:/marmalade/6.3/modules/iwgeom/h/IwGeomFPlane.h'
p1004
(lp1005
I1
ag944
asS'c:/marmalade/6.3/modules/iwgeom/h/IwGeomFSphere.h'
p1006
(lp1007
I1
ag944
assS'iwresmanager'
p1008
(dp1009
S'c:/marmalade/6.3/modules/iwresmanager/h/IwResGroup.h'
p1010
(lp1011
I1
a(dp1012
asS'c:/marmalade/6.3/modules/iwresmanager/iwresmanager.mkf'
p1013
(lp1014
I1
a(dp1015
asS'c:/marmalade/6.3/modules/iwresmanager/h/IwResHandlerImage.h'
p1016
(lp1017
I1
ag1012
asS'c:/marmalade/6.3/modules/iwresmanager/h/IwResManagerClass.h'
p1018
(lp1019
I1
ag1012
asS'c:/marmalade/6.3/modules/iwresmanager/h/IwResHandler.h'
p1020
(lp1021
I1
ag1012
asS'c:/marmalade/6.3/modules/iwresmanager/h/IwResHandlerITX.h'
p1022
(lp1023
I1
ag1012
asS'c:/marmalade/6.3/modules/iwresmanager/docs/iwresmanager.config.txt'
p1024
(lp1025
I1
ag1012
asS'c:/marmalade/6.3/modules/iwresmanager/h/IwResSerialise.h'
p1026
(lp1027
I1
ag1012
asS'c:/marmalade/6.3/modules/iwresmanager/h/IwResManager.h'
p1028
(lp1029
I1
ag1012
asS'c:/marmalade/6.3/modules/iwresmanager/h/IwResHandlerGROUP.h'
p1030
(lp1031
I1
ag1012
assS'iwgx'
p1032
(dp1033
S'c:/marmalade/6.3/modules/iwgx/h/IwGxMetrics.h'
p1034
(lp1035
I1
a(dp1036
asS'c:/marmalade/6.3/modules/iwgx/docs/iwgx.config.txt'
p1037
(lp1038
I1
ag1036
asS'c:/marmalade/6.3/modules/iwgx/h/IwGx.h'
p1039
(lp1040
I1
ag1036
asS'c:/marmalade/6.3/modules/iwgx/h/IwDebugPrim.h'
p1041
(lp1042
I1
ag1036
asS'c:/marmalade/6.3/modules/iwgx/h/IwClip.inl'
p1043
(lp1044
I1
ag1036
asS'c:/marmalade/6.3/modules/iwgx/docs/iwgx_public.defines.txt'
p1045
(lp1046
I1
ag1036
asS'c:/marmalade/6.3/modules/iwgx/h/IwGxState.h'
p1047
(lp1048
I1
ag1036
asS'c:/marmalade/6.3/modules/iwgx/h/IwGxError.h'
p1049
(lp1050
I1
ag1036
asS'c:/marmalade/6.3/modules/iwgx/h/IwMaterial.h'
p1051
(lp1052
I1
ag1036
asS'c:/marmalade/6.3/modules/iwgx/h/IwMatAnim.h'
p1053
(lp1054
I1
ag1036
asS'c:/marmalade/6.3/modules/iwgx/h/IwGxSurface.h'
p1055
(lp1056
I1
ag1036
asS'c:/marmalade/6.3/modules/iwgx/h/IwResHandlerMTL.h'
p1057
(lp1058
I1
ag1036
asS'c:/marmalade/6.3/modules/iwgx/h/IwTPage.h'
p1059
(lp1060
I1
ag1036
asS'c:/marmalade/6.3/modules/iwgx/h/IwFColour.h'
p1061
(lp1062
I1
ag1036
asS'c:/marmalade/6.3/modules/iwgx/h/IwColour.h'
p1063
(lp1064
I1
ag1036
asS'c:/marmalade/6.3/modules/iwgx/h/IwGxShaderTechnique.h'
p1065
(lp1066
I1
ag1036
asS'c:/marmalade/6.3/modules/iwgx/h/IwGxTypes.h'
p1067
(lp1068
I1
ag1036
asS'c:/marmalade/6.3/modules/iwgx/iwgx.mkf'
p1069
(lp1070
I1
a(dp1071
asS'c:/marmalade/6.3/modules/iwgx/h/IwGxFuncTable.h'
p1072
(lp1073
I1
ag1036
asS'c:/marmalade/6.3/modules/iwgx/h/IwGxStream.h'
p1074
(lp1075
I1
ag1036
asS'c:/marmalade/6.3/modules/iwgx/h/IwClip.h'
p1076
(lp1077
I1
ag1036
asS'c:/marmalade/6.3/modules/iwgx/h/IwGxPrint.h'
p1078
(lp1079
I1
ag1036
asS'c:/marmalade/6.3/modules/iwgx/h/IwGxTransformSW.h'
p1080
(lp1081
I1
ag1036
asS'c:/marmalade/6.3/modules/iwgx/h/IwGxDebug.h'
p1082
(lp1083
I1
ag1036
asS'c:/marmalade/6.3/modules/iwgx/h/IwTexture.h'
p1084
(lp1085
I1
ag1036
assS'iwutil'
p1086
(dp1087
S'c:/marmalade/6.3/modules/iwutil/h/IwOptimiseARM.h'
p1088
(lp1089
I1
a(dp1090
asS'c:/marmalade/6.3/modules/iwutil/h/IwDebug.h'
p1091
(lp1092
I1
ag1090
asS'c:/marmalade/6.3/modules/iwutil/h/IwFibre.h'
p1093
(lp1094
I1
ag1090
asS'c:/marmalade/6.3/modules/iwutil/h/IwTextParserITX.h'
p1095
(lp1096
I1
ag1090
asS'c:/marmalade/6.3/modules/iwutil/h/IwCore.h'
p1097
(lp1098
I1
ag1090
asS'c:/marmalade/6.3/modules/iwutil/h/IwFile.h'
p1099
(lp1100
I1
ag1090
asS'c:/marmalade/6.3/modules/iwutil/h/IwString.h'
p1101
(lp1102
I1
ag1090
asS'c:/marmalade/6.3/modules/iwutil/h/IwOptimiseSize.h'
p1103
(lp1104
I1
ag1090
asS'c:/marmalade/6.3/modules/iwutil/h/IwArray.h'
p1105
(lp1106
I1
ag1090
asS'c:/marmalade/6.3/modules/iwutil/h/IwRuntime.h'
p1107
(lp1108
I1
ag1090
asS'c:/marmalade/6.3/modules/iwutil/h/IwDivide.h'
p1109
(lp1110
I1
ag1090
asS'c:/marmalade/6.3/modules/iwutil/h/IwPath.h'
p1111
(lp1112
I1
ag1090
asS'c:/marmalade/6.3/modules/iwutil/h/IwUtilInitTerm.h'
p1113
(lp1114
I1
ag1090
asS'c:/marmalade/6.3/modules/iwutil/iwutil.mkf'
p1115
(lp1116
I1
a(dp1117
asS'c:/marmalade/6.3/modules/iwutil/h/IwMemManagerDL.h'
p1118
(lp1119
I1
ag1090
asS'c:/marmalade/6.3/modules/iwutil/h/IwMemory.h'
p1120
(lp1121
I1
ag1090
asS'c:/marmalade/6.3/modules/iwutil/h/IwChar.h'
p1122
(lp1123
I1
ag1090
asS'c:/marmalade/6.3/modules/iwutil/h/IwUtil.h'
p1124
(lp1125
I1
ag1090
asS'c:/marmalade/6.3/modules/iwutil/docs/iwutil.config.txt'
p1126
(lp1127
I1
ag1090
asS'c:/marmalade/6.3/modules/iwutil/h/IwSerialise.h'
p1128
(lp1129
I1
ag1090
asS'c:/marmalade/6.3/modules/iwutil/h/IwUncopyable.h'
p1130
(lp1131
I1
ag1090
asS'c:/marmalade/6.3/modules/iwutil/h/IwVariableBitField.h'
p1132
(lp1133
I1
ag1090
asS'c:/marmalade/6.3/modules/iwutil/h/IwOptimiseThumb.h'
p1134
(lp1135
I1
ag1090
asS'c:/marmalade/6.3/modules/iwutil/h/IwEvent.h'
p1136
(lp1137
I1
ag1090
asS'c:/marmalade/6.3/modules/iwutil/h/IwCopyingPtr.h'
p1138
(lp1139
I1
ag1090
asS'c:/marmalade/6.3/modules/iwutil/h/IwProfileMenu.h'
p1140
(lp1141
I1
ag1090
asS'c:/marmalade/6.3/modules/iwutil/h/IwMemBucket.h'
p1142
(lp1143
I1
ag1090
asS'c:/marmalade/6.3/modules/iwutil/h/IwTypes.h'
p1144
(lp1145
I1
ag1090
asS'c:/marmalade/6.3/modules/iwutil/h/IwDivTable.h'
p1146
(lp1147
I1
ag1090
asS'c:/marmalade/6.3/modules/iwutil/h/IwList.h'
p1148
(lp1149
I1
ag1090
asS'c:/marmalade/6.3/modules/iwutil/h/IwUTF8.h'
p1150
(lp1151
I1
ag1090
asS'c:/marmalade/6.3/modules/iwutil/h/IwMemBucketHelpers.h'
p1152
(lp1153
I1
ag1090
asS'c:/marmalade/6.3/modules/iwutil/h/IwRandom.h'
p1154
(lp1155
I1
ag1090
asS'c:/marmalade/6.3/modules/iwutil/h/IwClassFactory.h'
p1156
(lp1157
I1
ag1090
asS'c:/marmalade/6.3/modules/iwutil/h/IwMenu.h'
p1158
(lp1159
I1
ag1090
asS'c:/marmalade/6.3/modules/iwutil/h/IwBuffer.h'
p1160
(lp1161
I1
ag1090
asS'c:/marmalade/6.3/modules/iwutil/h/IwResource.h'
p1162
(lp1163
I1
ag1090
asS'c:/marmalade/6.3/modules/iwutil/h/IwHashString.h'
p1164
(lp1165
I1
ag1090
asS'c:/marmalade/6.3/modules/iwutil/h/IwImageHelper.h'
p1166
(lp1167
I1
ag1090
asS'c:/marmalade/6.3/modules/iwutil/h/IwTextParseable.h'
p1168
(lp1169
I1
ag1090
asS'c:/marmalade/6.3/modules/iwutil/h/IwManaged.h'
p1170
(lp1171
I1
ag1090
asS'c:/marmalade/6.3/modules/iwutil/h/IwManagedList.h'
p1172
(lp1173
I1
ag1090
asS'c:/marmalade/6.3/modules/iwutil/h/IwSingleton.h'
p1174
(lp1175
I1
ag1090
asS'c:/marmalade/6.3/modules/iwutil/h/IwAutoFile.h'
p1176
(lp1177
I1
ag1090
asS'c:/marmalade/6.3/modules/iwutil/h/IwImage.h'
p1178
(lp1179
I1
ag1090
asS'c:/marmalade/6.3/modules/iwutil/h/IwMath.h'
p1180
(lp1181
I1
ag1090
asS'c:/marmalade/6.3/modules/iwutil/h/IwAllocator.h'
p1182
(lp1183
I1
ag1090
asS'c:/marmalade/6.3/modules/iwutil/h/IwOptimiseSpeed.h'
p1184
(lp1185
I1
ag1090
asS'c:/marmalade/6.3/modules/iwutil/h/IwTextParser.h'
p1186
(lp1187
I1
ag1090
asS'c:/marmalade/6.3/modules/iwutil/h/IwKeymap.h'
p1188
(lp1189
I1
ag1090
asssS'(zlib)'
p1190
(dp1191
g805
(dp1192
S'c:/marmalade/6.3/modules/third_party/zlib/h/zlib.h'
p1193
(lp1194
I1
a(dp1195
asS'c:/marmalade/6.3/modules/third_party/zlib/h/zconf.h'
p1196
(lp1197
I1
ag1195
assS'c:/marmalade/6.3/modules/third_party/zlib/zlib.mkf'
p1198
(lp1199
I1
a(dp1200
asssS'files'
p1201
(dp1202
S'IwGxFontPreparedData.h'
p1203
g233
(cmkb_main
File
p1204
g235
Ntp1205
Rp1206
(dp1207
S'flags'
p1208
g925
sS'group'
p1209
(lp1210
S"'Marmalade Studio'"
p1211
ag918
asg259
g926
sbsS'iterator'
p1212
g233
(g1204
g235
Ntp1213
Rp1214
(dp1215
g1208
(dp1216
sg1209
(lp1217
S"'Marmalade System (S3E)'"
p1218
aS'stdc headers'
p1219
aS'c++'
p1220
asg259
S'c:/marmalade/6.3/s3e/h/std/c++/iterator'
p1221
sbsS'IwGeomPlane.h'
p1222
g233
(g1204
g235
Ntp1223
Rp1224
(dp1225
g1208
g944
sg1209
(lp1226
S"'Marmalade Studio'"
p1227
ag940
asg259
g970
sbsS's3e.h'
p1228
g233
(g1204
g235
Ntp1229
Rp1230
(dp1231
g1208
g1216
sg1209
(lp1232
g1218
asg259
S'c:/marmalade/6.3/s3e/h/s3e.h'
p1233
sbsS'errno.h'
p1234
g233
(g1204
g235
Ntp1235
Rp1236
(dp1237
g1208
g1216
sg1209
(lp1238
g1218
aS'stdc headers'
p1239
asg259
S'c:/marmalade/6.3/s3e/h/std/errno.h'
p1240
sbsS'IwSingleton.h'
p1241
g233
(g1204
g235
Ntp1242
Rp1243
(dp1244
g1208
g1090
sg1209
(lp1245
S"'Marmalade Studio'"
p1246
ag1086
asg259
g1174
sbsS'dlfcn.h'
p1247
g233
(g1204
g235
Ntp1248
Rp1249
(dp1250
g1208
g1216
sg1209
g1238
sg259
S'c:/marmalade/6.3/s3e/h/std/dlfcn.h'
p1251
sbsS'stdio_streambuf'
p1252
g233
(g1204
g235
Ntp1253
Rp1254
(dp1255
g1208
g1216
sg1209
g1217
sg259
S'c:/marmalade/6.3/s3e/h/std/c++/stdio_streambuf'
p1256
sbsS'sched.h'
p1257
g233
(g1204
g235
Ntp1258
Rp1259
(dp1260
g1208
g1216
sg1209
g1238
sg259
S'c:/marmalade/6.3/s3e/h/std/sched.h'
p1261
sbsS'IwGeomFMat2D.h'
p1262
g233
(g1204
g235
Ntp1263
Rp1264
(dp1265
g1208
g944
sg1209
g1226
sg259
g976
sbsS's3eExt.h'
p1266
g233
(g1204
g235
Ntp1267
Rp1268
(dp1269
g1208
g1216
sg1209
g1232
sg259
S'c:/marmalade/6.3/s3e/h/s3eExt.h'
p1270
sbsS'grp.h'
p1271
g233
(g1204
g235
Ntp1272
Rp1273
(dp1274
g1208
g1216
sg1209
g1238
sg259
S'c:/marmalade/6.3/s3e/h/std/grp.h'
p1275
sbsS'list'
p1276
g233
(g1204
g235
Ntp1277
Rp1278
(dp1279
g1208
g1216
sg1209
g1217
sg259
S'c:/marmalade/6.3/s3e/h/std/c++/list'
p1280
sbsS'istream'
p1281
g233
(g1204
g235
Ntp1282
Rp1283
(dp1284
g1208
g1216
sg1209
g1217
sg259
S'c:/marmalade/6.3/s3e/h/std/c++/istream'
p1285
sbsS'jpeglib.h'
p1286
g233
(g1204
g235
Ntp1287
Rp1288
(dp1289
g1208
g820
sg1209
(lp1290
g815
ag805
asg259
g841
sbsS'iw2d_public.defines.txt'
p1291
g233
(g1204
g235
Ntp1292
Rp1293
(dp1294
g1208
g913
sg1209
(lp1295
S"'Marmalade Studio'"
p1296
ag906
asg259
g911
sbsS'iostream.h'
p1297
g233
(g1204
g235
Ntp1298
Rp1299
(dp1300
g1208
g1216
sg1209
g1217
sg259
S'c:/marmalade/6.3/s3e/h/std/c++/iostream.h'
p1301
sbsS'string'
p1302
g233
(g1204
g235
Ntp1303
Rp1304
(dp1305
g1208
g1216
sg1209
g1217
sg259
S'c:/marmalade/6.3/s3e/h/std/c++/string'
p1306
sbsS'IwMemory.h'
p1307
g233
(g1204
g235
Ntp1308
Rp1309
(dp1310
g1208
g1090
sg1209
g1245
sg259
g1120
sbsS'IwGL.h'
p1311
g233
(g1204
g235
Ntp1312
Rp1313
(dp1314
g1208
g898
sg1209
(lp1315
S"'Marmalade Studio'"
p1316
ag894
asg259
g896
sbsS'iw2d.config.txt'
p1317
g233
(g1204
g235
Ntp1318
Rp1319
(dp1320
g1208
g913
sg1209
g1295
sg259
g916
sbsS'iomanip'
p1321
g233
(g1204
g235
Ntp1322
Rp1323
(dp1324
g1208
g1216
sg1209
g1217
sg259
S'c:/marmalade/6.3/s3e/h/std/c++/iomanip'
p1325
sbsS'iwgeom.mkf'
p1326
g233
(g1204
g235
Ntp1327
Rp1328
(dp1329
g1208
g969
sg1209
g1226
sg259
g967
sbsS'IwGxError.h'
p1330
g233
(g1204
g235
Ntp1331
Rp1332
(dp1333
g1208
g1036
sg1209
(lp1334
S"'Marmalade Studio'"
p1335
ag1032
asg259
g1049
sbsS'IwGeom.h'
p1336
g233
(g1204
g235
Ntp1337
Rp1338
(dp1339
g1208
g944
sg1209
g1226
sg259
g945
sbsS'IwGeomVec4.h'
p1340
g233
(g1204
g235
Ntp1341
Rp1342
(dp1343
g1208
g944
sg1209
g1226
sg259
g963
sbsS'dir.h'
p1344
g233
(g1204
g235
Ntp1345
Rp1346
(dp1347
g1208
g1216
sg1209
(lp1348
g1218
aS'stdc headers'
p1349
aS'sys'
p1350
asg259
S'c:/marmalade/6.3/s3e/h/std/sys/dir.h'
p1351
sbsS'locale.h'
p1352
g233
(g1204
g235
Ntp1353
Rp1354
(dp1355
g1208
g1216
sg1209
g1238
sg259
S'c:/marmalade/6.3/s3e/h/std/locale.h'
p1356
sbsS'vector'
p1357
g233
(g1204
g235
Ntp1358
Rp1359
(dp1360
g1208
g1216
sg1209
g1217
sg259
S'c:/marmalade/6.3/s3e/h/std/c++/vector'
p1361
sbsS'rendering.cpp'
p1362
g233
(g1204
g235
Ntp1363
Rp1364
(dp1365
g1208
g866
sg1209
(lp1366
g860
ag862
asg259
g879
sbsS'IwManaged.h'
p1367
g233
(g1204
g235
Ntp1368
Rp1369
(dp1370
g1208
g1090
sg1209
g1245
sg259
g1170
sbsS's3eCompass.h'
p1371
g233
(g1204
g235
Ntp1372
Rp1373
(dp1374
g1208
g1216
sg1209
g1232
sg259
S'c:/marmalade/6.3/s3e/h/s3eCompass.h'
p1375
sbsS'cderror.h'
p1376
g233
(g1204
g235
Ntp1377
Rp1378
(dp1379
g1208
g820
sg1209
g1290
sg259
g825
sbsS'climits'
p1380
g233
(g1204
g235
Ntp1381
Rp1382
(dp1383
g1208
g1216
sg1209
g1217
sg259
S'c:/marmalade/6.3/s3e/h/std/c++/climits'
p1384
sbsS's3eVibra.h'
p1385
g233
(g1204
g235
Ntp1386
Rp1387
(dp1388
g1208
g1216
sg1209
g1232
sg259
S'c:/marmalade/6.3/s3e/h/s3eVibra.h'
p1389
sbsS'jversion.h'
p1390
g233
(g1204
g235
Ntp1391
Rp1392
(dp1393
g1208
g820
sg1209
g1290
sg259
g833
sbsS'fnmatch.h'
p1394
g233
(g1204
g235
Ntp1395
Rp1396
(dp1397
g1208
g1216
sg1209
g1238
sg259
S'c:/marmalade/6.3/s3e/h/std/fnmatch.h'
p1398
sbsS'IwGxState.h'
p1399
g233
(g1204
g235
Ntp1400
Rp1401
(dp1402
g1208
g1036
sg1209
g1334
sg259
g1047
sbsS's3eAudio.h'
p1403
g233
(g1204
g235
Ntp1404
Rp1405
(dp1406
g1208
g1216
sg1209
g1232
sg259
S'c:/marmalade/6.3/s3e/h/s3eAudio.h'
p1407
sbsS's3eSurface.h'
p1408
g233
(g1204
g235
Ntp1409
Rp1410
(dp1411
g1208
g1216
sg1209
g1232
sg259
S'c:/marmalade/6.3/s3e/h/s3eSurface.h'
p1412
sbsS'new'
p1413
g233
(g1204
g235
Ntp1414
Rp1415
(dp1416
g1208
g1216
sg1209
g1217
sg259
S'c:/marmalade/6.3/s3e/h/std/c++/new'
p1417
sbsS's3eWindow.h'
p1418
g233
(g1204
g235
Ntp1419
Rp1420
(dp1421
g1208
g1216
sg1209
(lp1422
g1218
aS'Extensions'
p1423
asg259
S'c:/marmalade/6.3/s3e/h/ext/s3eWindow.h'
p1424
sbsS'IwBuffer.h'
p1425
g233
(g1204
g235
Ntp1426
Rp1427
(dp1428
g1208
g1090
sg1209
g1245
sg259
g1160
sbsS's3eOSExec.h'
p1429
g233
(g1204
g235
Ntp1430
Rp1431
(dp1432
g1208
g1216
sg1209
g1422
sg259
S'c:/marmalade/6.3/s3e/h/ext/s3eOSExec.h'
p1433
sbsS'IwGxTransformSW.h'
p1434
g233
(g1204
g235
Ntp1435
Rp1436
(dp1437
g1208
g1036
sg1209
g1334
sg259
g1080
sbsS'unistd.h'
p1438
g233
(g1204
g235
Ntp1439
Rp1440
(dp1441
g1208
g1216
sg1209
g1238
sg259
S'c:/marmalade/6.3/s3e/h/std/unistd.h'
p1442
sbsS'iwgxfont.config.txt'
p1443
g233
(g1204
g235
Ntp1444
Rp1445
(dp1446
g1208
g925
sg1209
g1210
sg259
g923
sbsS'gl2platform.h'
p1447
g233
(g1204
g235
Ntp1448
Rp1449
(dp1450
g1208
g1216
sg1209
(lp1451
g1218
aS'GL'
p1452
aS'GLES 2.0'
p1453
asg259
S'c:/marmalade/6.3/s3e/h/GLES2/gl2platform.h'
p1454
sbsS'IwResManagerClass.h'
p1455
g233
(g1204
g235
Ntp1456
Rp1457
(dp1458
g1208
g1012
sg1209
(lp1459
g892
ag1008
asg259
g1018
sbsS'queue'
p1460
g233
(g1204
g235
Ntp1461
Rp1462
(dp1463
g1208
g1216
sg1209
g1217
sg259
S'c:/marmalade/6.3/s3e/h/std/c++/queue'
p1464
sbsS'time_1.h'
p1465
g233
(g1204
g235
Ntp1466
Rp1467
(dp1468
g1208
g1216
sg1209
g1348
sg259
S'c:/marmalade/6.3/s3e/h/std/sys/time.h'
p1469
sbsS'Iw2D.h'
p1470
g233
(g1204
g235
Ntp1471
Rp1472
(dp1473
g1208
g913
sg1209
g1295
sg259
g914
sbsS'IwGeomVec2.h'
p1474
g233
(g1204
g235
Ntp1475
Rp1476
(dp1477
g1208
g944
sg1209
g1226
sg259
g953
sbsS's3eDevice.h'
p1478
g233
(g1204
g235
Ntp1479
Rp1480
(dp1481
g1208
g1216
sg1209
g1232
sg259
S'c:/marmalade/6.3/s3e/h/s3eDevice.h'
p1482
sbsS'malloc.h'
p1483
g233
(g1204
g235
Ntp1484
Rp1485
(dp1486
g1208
g1216
sg1209
g1238
sg259
S'c:/marmalade/6.3/s3e/h/std/malloc.h'
p1487
sbsS'stdarg.h'
p1488
g233
(g1204
g235
Ntp1489
Rp1490
(dp1491
g1208
g1216
sg1209
g1238
sg259
S'c:/marmalade/6.3/s3e/h/std/stdarg.h'
p1492
sbsS'IwGeomCore.h'
p1493
g233
(g1204
g235
Ntp1494
Rp1495
(dp1496
g1208
g944
sg1209
g1226
sg259
g980
sbsS'endian.h'
p1497
g233
(g1204
g235
Ntp1498
Rp1499
(dp1500
g1208
g1216
sg1209
g1238
sg259
S'c:/marmalade/6.3/s3e/h/std/endian.h'
p1501
sbsS'glob.h'
p1502
g233
(g1204
g235
Ntp1503
Rp1504
(dp1505
g1208
g1216
sg1209
g1238
sg259
S'c:/marmalade/6.3/s3e/h/std/glob.h'
p1506
sbsS'fstream'
p1507
g233
(g1204
g235
Ntp1508
Rp1509
(dp1510
g1208
g1216
sg1209
g1217
sg259
S'c:/marmalade/6.3/s3e/h/std/c++/fstream'
p1511
sbsS's3eCamera.h'
p1512
g233
(g1204
g235
Ntp1513
Rp1514
(dp1515
g1208
g1216
sg1209
g1232
sg259
S'c:/marmalade/6.3/s3e/h/s3eCamera.h'
p1516
sbsS'jconfig.h'
p1517
g233
(g1204
g235
Ntp1518
Rp1519
(dp1520
g1208
g820
sg1209
g1290
sg259
g823
sbsS'memory'
p1521
g233
(g1204
g235
Ntp1522
Rp1523
(dp1524
g1208
g1216
sg1209
g1217
sg259
S'c:/marmalade/6.3/s3e/h/std/c++/memory'
p1525
sbsS'egl.h'
p1526
g233
(g1204
g235
Ntp1527
Rp1528
(dp1529
g1208
g1216
sg1209
(lp1530
g1218
aS'GL'
p1531
aS'EGL'
p1532
asg259
S'c:/marmalade/6.3/s3e/h/EGL/egl.h'
p1533
sbsS'IwClip.inl'
p1534
g233
(g1204
g235
Ntp1535
Rp1536
(dp1537
g1208
g1036
sg1209
g1334
sg259
g1043
sbsS'IwMemManagerDL.h'
p1538
g233
(g1204
g235
Ntp1539
Rp1540
(dp1541
g1208
g1090
sg1209
g1245
sg259
g1118
sbsS'deque'
p1542
g233
(g1204
g235
Ntp1543
Rp1544
(dp1545
g1208
g1216
sg1209
g1217
sg259
S'c:/marmalade/6.3/s3e/h/std/c++/deque'
p1546
sbsS'IwString.h'
p1547
g233
(g1204
g235
Ntp1548
Rp1549
(dp1550
g1208
g1090
sg1209
g1245
sg259
g1101
sbsS'cwchar'
p1551
g233
(g1204
g235
Ntp1552
Rp1553
(dp1554
g1208
g1216
sg1209
g1217
sg259
S'c:/marmalade/6.3/s3e/h/std/c++/cwchar'
p1555
sbsS'iwutil.mkf'
p1556
g233
(g1204
g235
Ntp1557
Rp1558
(dp1559
g1208
g1117
sg1209
g1245
sg259
g1115
sbsS'csignal'
p1560
g233
(g1204
g235
Ntp1561
Rp1562
(dp1563
g1208
g1216
sg1209
g1217
sg259
S'c:/marmalade/6.3/s3e/h/std/c++/csignal'
p1564
sbsS'float.h'
p1565
g233
(g1204
g235
Ntp1566
Rp1567
(dp1568
g1208
g1216
sg1209
g1238
sg259
S'c:/marmalade/6.3/s3e/h/std/float.h'
p1569
sbsS'pthread_alloc'
p1570
g233
(g1204
g235
Ntp1571
Rp1572
(dp1573
g1208
g1216
sg1209
g1217
sg259
S'c:/marmalade/6.3/s3e/h/std/c++/pthread_alloc'
p1574
sbsS'getopt.h'
p1575
g233
(g1204
g235
Ntp1576
Rp1577
(dp1578
g1208
g1216
sg1209
g1238
sg259
S'c:/marmalade/6.3/s3e/h/std/getopt.h'
p1579
sbsS'IwOptimiseARM.h'
p1580
g233
(g1204
g235
Ntp1581
Rp1582
(dp1583
g1208
g1090
sg1209
g1245
sg259
g1088
sbsS'times.h'
p1584
g233
(g1204
g235
Ntp1585
Rp1586
(dp1587
g1208
g1216
sg1209
g1348
sg259
S'c:/marmalade/6.3/s3e/h/std/sys/times.h'
p1588
sbsS'IwGeomFSphere.h'
p1589
g233
(g1204
g235
Ntp1590
Rp1591
(dp1592
g1208
g944
sg1209
g1226
sg259
g1006
sbsS'game.h'
p1593
g233
(g1204
g235
Ntp1594
Rp1595
(dp1596
g1208
g866
sg1209
g1366
sg259
g877
sbsS'functional'
p1597
g233
(g1204
g235
Ntp1598
Rp1599
(dp1600
g1208
g1216
sg1209
g1217
sg259
S'c:/marmalade/6.3/s3e/h/std/c++/functional'
p1601
sbsS'IwTypes.h'
p1602
g233
(g1204
g235
Ntp1603
Rp1604
(dp1605
g1208
g1090
sg1209
g1245
sg259
g1144
sbsS'IwGxMetrics.h'
p1606
g233
(g1204
g235
Ntp1607
Rp1608
(dp1609
g1208
g1036
sg1209
g1334
sg259
g1034
sbsS's3eCompression.h'
p1610
g233
(g1204
g235
Ntp1611
Rp1612
(dp1613
g1208
g1216
sg1209
g1232
sg259
S'c:/marmalade/6.3/s3e/h/s3eCompression.h'
p1614
sbsS'langinfo.h'
p1615
g233
(g1204
g235
Ntp1616
Rp1617
(dp1618
g1208
g1216
sg1209
g1238
sg259
S'c:/marmalade/6.3/s3e/h/std/langinfo.h'
p1619
sbsS's3edebugHeap.h'
p1620
g233
(g1204
g235
Ntp1621
Rp1622
(dp1623
g1208
g1216
sg1209
g1422
sg259
S'c:/marmalade/6.3/s3e/h/ext/s3edebugHeap.h'
p1624
sbsS'AirplayVersion.h'
p1625
g233
(g1204
g235
Ntp1626
Rp1627
(dp1628
g1208
g1216
sg1209
g1232
sg259
S'c:/marmalade/6.3/s3e/h/AirplayVersion.h'
p1629
sbsS'gl2extimg.h'
p1630
g233
(g1204
g235
Ntp1631
Rp1632
(dp1633
g1208
g1216
sg1209
g1451
sg259
S'c:/marmalade/6.3/s3e/h/GLES2/gl2extimg.h'
p1634
sbsS'app.config.txt'
p1635
g233
(g1204
g235
Ntp1636
Rp1637
(dp1638
g1208
(dp1639
sg1209
g2
sg259
S'c:/Users/Pietro/Documents/GitHub/Patriot-Missile-Defense/data/app.config.txt'
p1640
sbsS'IwGeomSqrt.h'
p1641
g233
(g1204
g235
Ntp1642
Rp1643
(dp1644
g1208
g944
sg1209
g1226
sg259
g992
sbsS'tiniconv_int.h'
p1645
g233
(g1204
g235
Ntp1646
Rp1647
(dp1648
g1208
g854
sg1209
(lp1649
g850
asg259
g855
sbsS'syslog.h'
p1650
g233
(g1204
g235
Ntp1651
Rp1652
(dp1653
g1208
g1216
sg1209
g1238
sg259
S'c:/marmalade/6.3/s3e/h/std/syslog.h'
p1654
sbsS'IwGxFontTypes.h'
p1655
g233
(g1204
g235
Ntp1656
Rp1657
(dp1658
g1208
g925
sg1209
g1210
sg259
g938
sbsS'IwGeomFIntersect.h'
p1659
g233
(g1204
g235
Ntp1660
Rp1661
(dp1662
g1208
g944
sg1209
g1226
sg259
g961
sbsS'hash_map'
p1663
g233
(g1204
g235
Ntp1664
Rp1665
(dp1666
g1208
g1216
sg1209
g1217
sg259
S'c:/marmalade/6.3/s3e/h/std/c++/hash_map'
p1667
sbsS's3e.mkf'
p1668
g233
(g1204
g235
Ntp1669
Rp1670
(dp1671
g1208
(dp1672
sg1209
g1232
sg259
S'c:/marmalade/6.3/s3e/s3e.mkf'
p1673
sbsS's3eOSReadString.h'
p1674
g233
(g1204
g235
Ntp1675
Rp1676
(dp1677
g1208
g1216
sg1209
g1422
sg259
S'c:/marmalade/6.3/s3e/h/ext/s3eOSReadString.h'
p1678
sbsS'map'
p1679
g233
(g1204
g235
Ntp1680
Rp1681
(dp1682
g1208
g1216
sg1209
g1217
sg259
S'c:/marmalade/6.3/s3e/h/std/c++/map'
p1683
sbsS'IwOptimiseSpeed.h'
p1684
g233
(g1204
g235
Ntp1685
Rp1686
(dp1687
g1208
g1090
sg1209
g1245
sg259
g1184
sbsS'localise.h'
p1688
g233
(g1204
g235
Ntp1689
Rp1690
(dp1691
g1208
g866
sg1209
g1366
sg259
g867
sbsS'msl_string.h'
p1692
g233
(g1204
g235
Ntp1693
Rp1694
(dp1695
g1208
g1216
sg1209
g1217
sg259
S'c:/marmalade/6.3/s3e/h/std/c++/msl_string.h'
p1696
sbsS'select.h'
p1697
g233
(g1204
g235
Ntp1698
Rp1699
(dp1700
g1208
g1216
sg1209
g1348
sg259
S'c:/marmalade/6.3/s3e/h/std/sys/select.h'
p1701
sbsS'zlib.mkf'
p1702
g233
(g1204
g235
Ntp1703
Rp1704
(dp1705
g1208
g1200
sg1209
(lp1706
g1190
asg259
g1198
sbsS'signal.h'
p1707
g233
(g1204
g235
Ntp1708
Rp1709
(dp1710
g1208
g1216
sg1209
g1238
sg259
S'c:/marmalade/6.3/s3e/h/std/signal.h'
p1711
sbsS'sigcontext.h'
p1712
g233
(g1204
g235
Ntp1713
Rp1714
(dp1715
g1208
g1216
sg1209
g1238
sg259
S'c:/marmalade/6.3/s3e/h/std/sigcontext.h'
p1716
sbsS'libpng.mkf'
p1717
g233
(g1204
g235
Ntp1718
Rp1719
(dp1720
g1208
g814
sg1209
(lp1721
g803
asg259
g812
sbsS'effects.cpp'
p1722
g233
(g1204
g235
Ntp1723
Rp1724
(dp1725
g1208
g866
sg1209
g1366
sg259
g869
sbsS's3eClipboard.h'
p1726
g233
(g1204
g235
Ntp1727
Rp1728
(dp1729
g1208
g1216
sg1209
g1232
sg259
S'c:/marmalade/6.3/s3e/h/s3eClipboard.h'
p1730
sbsS'IwGxFuncTable.h'
p1731
g233
(g1204
g235
Ntp1732
Rp1733
(dp1734
g1208
g1036
sg1209
g1334
sg259
g1072
sbsS'IwResHandlerGROUP.h'
p1735
g233
(g1204
g235
Ntp1736
Rp1737
(dp1738
g1208
g1012
sg1209
g1459
sg259
g1030
sbsS's3eDebug.h'
p1739
g233
(g1204
g235
Ntp1740
Rp1741
(dp1742
g1208
g1216
sg1209
g1232
sg259
S'c:/marmalade/6.3/s3e/h/s3eDebug.h'
p1743
sbsS'socket.h'
p1744
g233
(g1204
g235
Ntp1745
Rp1746
(dp1747
g1208
g1216
sg1209
g1348
sg259
S'c:/marmalade/6.3/s3e/h/std/sys/socket.h'
p1748
sbsS'glext.h'
p1749
g233
(g1204
g235
Ntp1750
Rp1751
(dp1752
g1208
g1216
sg1209
(lp1753
g1218
aS'GL'
p1754
aS'GLES 1.x'
p1755
asg259
S'c:/marmalade/6.3/s3e/h/GLES/glext.h'
p1756
sbsS'typeinfo.h'
p1757
g233
(g1204
g235
Ntp1758
Rp1759
(dp1760
g1208
g1216
sg1209
g1217
sg259
S'c:/marmalade/6.3/s3e/h/std/c++/typeinfo.h'
p1761
sbsS'typeinfo'
p1762
g233
(g1204
g235
Ntp1763
Rp1764
(dp1765
g1208
g1216
sg1209
g1217
sg259
S'c:/marmalade/6.3/s3e/h/std/c++/typeinfo'
p1766
sbsS'fstream.h'
p1767
g233
(g1204
g235
Ntp1768
Rp1769
(dp1770
g1208
g1216
sg1209
g1217
sg259
S'c:/marmalade/6.3/s3e/h/std/c++/fstream.h'
p1771
sbsS's3ePointer.h'
p1772
g233
(g1204
g235
Ntp1773
Rp1774
(dp1775
g1208
g1216
sg1209
g1232
sg259
S'c:/marmalade/6.3/s3e/h/s3ePointer.h'
p1776
sbsS'iw2d.mkf'
p1777
g233
(g1204
g235
Ntp1778
Rp1779
(dp1780
g1208
g910
sg1209
g1295
sg259
g908
sbsS's3eGL.h'
p1781
g233
(g1204
g235
Ntp1782
Rp1783
(dp1784
g1208
g1216
sg1209
g1232
sg259
S'c:/marmalade/6.3/s3e/h/s3eGL.h'
p1785
sbsS'IwGeomFVec2.h'
p1786
g233
(g1204
g235
Ntp1787
Rp1788
(dp1789
g1208
g944
sg1209
g1226
sg259
g1002
sbsS'IwGeomSVec4.h'
p1790
g233
(g1204
g235
Ntp1791
Rp1792
(dp1793
g1208
g944
sg1209
g1226
sg259
g978
sbsS'resources.group'
p1794
g233
(g1204
g235
Ntp1795
Rp1796
(dp1797
g1208
g866
sg1209
(lp1798
g860
ag885
asg259
g887
sbsS'IwMatAnim.h'
p1799
g233
(g1204
g235
Ntp1800
Rp1801
(dp1802
g1208
g1036
sg1209
g1334
sg259
g1053
sbsS'IwGeomFVec4.h'
p1803
g233
(g1204
g235
Ntp1804
Rp1805
(dp1806
g1208
g944
sg1209
g1226
sg259
g974
sbsS'IwGx.h'
p1807
g233
(g1204
g235
Ntp1808
Rp1809
(dp1810
g1208
g1036
sg1209
g1334
sg259
g1039
sbsS'valarray'
p1811
g233
(g1204
g235
Ntp1812
Rp1813
(dp1814
g1208
g1216
sg1209
g1217
sg259
S'c:/marmalade/6.3/s3e/h/std/c++/valarray'
p1815
sbsS'iosfwd'
p1816
g233
(g1204
g235
Ntp1817
Rp1818
(dp1819
g1208
g1216
sg1209
g1217
sg259
S'c:/marmalade/6.3/s3e/h/std/c++/iosfwd'
p1820
sbsS'gl2.h'
p1821
g233
(g1204
g235
Ntp1822
Rp1823
(dp1824
g1208
g1216
sg1209
g1451
sg259
S'c:/marmalade/6.3/s3e/h/GLES2/gl2.h'
p1825
sbsS'IwManagedList.h'
p1826
g233
(g1204
g235
Ntp1827
Rp1828
(dp1829
g1208
g1090
sg1209
g1245
sg259
g1172
sbsS'stdiostream.h'
p1830
g233
(g1204
g235
Ntp1831
Rp1832
(dp1833
g1208
g1216
sg1209
g1217
sg259
S'c:/marmalade/6.3/s3e/h/std/c++/stdiostream.h'
p1834
sbsS'mem.h'
p1835
g233
(g1204
g235
Ntp1836
Rp1837
(dp1838
g1208
g1216
sg1209
g1217
sg259
S'c:/marmalade/6.3/s3e/h/std/c++/mem.h'
p1839
sbsS'jerror.h'
p1840
g233
(g1204
g235
Ntp1841
Rp1842
(dp1843
g1208
g820
sg1209
g1290
sg259
g831
sbsS'zconf.h'
p1844
g233
(g1204
g235
Ntp1845
Rp1846
(dp1847
g1208
g1195
sg1209
(lp1848
g1190
ag805
asg259
g1196
sbsS's3e.config.txt'
p1849
g233
(g1204
g235
Ntp1850
Rp1851
(dp1852
g1208
g1216
sg1209
g1232
sg259
S'c:/marmalade/6.3/s3e/s3e.config.txt'
p1853
sbsS'numeric'
p1854
g233
(g1204
g235
Ntp1855
Rp1856
(dp1857
g1208
g1216
sg1209
g1217
sg259
S'c:/marmalade/6.3/s3e/h/std/c++/numeric'
p1858
sbsS'utime.h'
p1859
g233
(g1204
g235
Ntp1860
Rp1861
(dp1862
g1208
g1216
sg1209
g1238
sg259
S'c:/marmalade/6.3/s3e/h/std/utime.h'
p1863
sbsS'jdhuff.h'
p1864
g233
(g1204
g235
Ntp1865
Rp1866
(dp1867
g1208
g820
sg1209
g1290
sg259
g843
sbsS'IwGxStream.h'
p1868
g233
(g1204
g235
Ntp1869
Rp1870
(dp1871
g1208
g1036
sg1209
g1334
sg259
g1074
sbsS'IwImage.h'
p1872
g233
(g1204
g235
Ntp1873
Rp1874
(dp1875
g1208
g1090
sg1209
g1245
sg259
g1178
sbsS's3eImagePicker.h'
p1876
g233
(g1204
g235
Ntp1877
Rp1878
(dp1879
g1208
g1216
sg1209
g1422
sg259
S'c:/marmalade/6.3/s3e/h/ext/s3eImagePicker.h'
p1880
sbsS'IwTextParserITX.h'
p1881
g233
(g1204
g235
Ntp1882
Rp1883
(dp1884
g1208
g1090
sg1209
g1245
sg259
g1095
sbsS'stdlib.h'
p1885
g233
(g1204
g235
Ntp1886
Rp1887
(dp1888
g1208
g1216
sg1209
g1238
sg259
S'c:/marmalade/6.3/s3e/h/std/stdlib.h'
p1889
sbsS'IwCopyingPtr.h'
p1890
g233
(g1204
g235
Ntp1891
Rp1892
(dp1893
g1208
g1090
sg1209
g1245
sg259
g1138
sbsS'iostream'
p1894
g233
(g1204
g235
Ntp1895
Rp1896
(dp1897
g1208
g1216
sg1209
g1217
sg259
S'c:/marmalade/6.3/s3e/h/std/c++/iostream'
p1898
sbsS'png.h'
p1899
g233
(g1204
g235
Ntp1900
Rp1901
(dp1902
g1208
g809
sg1209
(lp1903
g803
ag805
asg259
g807
sbsS'stddef.h'
p1904
g233
(g1204
g235
Ntp1905
Rp1906
(dp1907
g1208
g1216
sg1209
g1238
sg259
S'c:/marmalade/6.3/s3e/h/std/stddef.h'
p1908
sbsS'setjmp_win32.h'
p1909
g233
(g1204
g235
Ntp1910
Rp1911
(dp1912
g1208
g1216
sg1209
g1238
sg259
S'c:/marmalade/6.3/s3e/h/std/setjmp_win32.h'
p1913
sbsS'IwGxPrint.h'
p1914
g233
(g1204
g235
Ntp1915
Rp1916
(dp1917
g1208
g1036
sg1209
g1334
sg259
g1078
sbsS'IwGeomSVec2.h'
p1918
g233
(g1204
g235
Ntp1919
Rp1920
(dp1921
g1208
g944
sg1209
g1226
sg259
g996
sbsS'streambuf.h'
p1922
g233
(g1204
g235
Ntp1923
Rp1924
(dp1925
g1208
g1216
sg1209
g1217
sg259
S'c:/marmalade/6.3/s3e/h/std/c++/streambuf.h'
p1926
sbsS'IwGeomFPlane.h'
p1927
g233
(g1204
g235
Ntp1928
Rp1929
(dp1930
g1208
g944
sg1209
g1226
sg259
g1004
sbsS'wchar.h'
p1931
g233
(g1204
g235
Ntp1932
Rp1933
(dp1934
g1208
g1216
sg1209
g1238
sg259
S'c:/marmalade/6.3/s3e/h/std/wchar.h'
p1935
sbsS's3eCameraCapture.h'
p1936
g233
(g1204
g235
Ntp1937
Rp1938
(dp1939
g1208
g1216
sg1209
g1422
sg259
S'c:/marmalade/6.3/s3e/h/ext/s3eCameraCapture.h'
p1940
sbsS'eglext.h'
p1941
g233
(g1204
g235
Ntp1942
Rp1943
(dp1944
g1208
g1216
sg1209
g1530
sg259
S'c:/marmalade/6.3/s3e/h/EGL/eglext.h'
p1945
sbsS'IwResHandlerImage.h'
p1946
g233
(g1204
g235
Ntp1947
Rp1948
(dp1949
g1208
g1012
sg1209
g1459
sg259
g1016
sbsS'strstream.h'
p1950
g233
(g1204
g235
Ntp1951
Rp1952
(dp1953
g1208
g1216
sg1209
g1217
sg259
S'c:/marmalade/6.3/s3e/h/std/c++/strstream.h'
p1954
sbsS'tiniconv.h'
p1955
g233
(g1204
g235
Ntp1956
Rp1957
(dp1958
g1208
g854
sg1209
g1649
sg259
g852
sbsS'IwGLExt.h'
p1959
g233
(g1204
g235
Ntp1960
Rp1961
(dp1962
g1208
g898
sg1209
g1315
sg259
g904
sbsS'app.icf'
p1963
g233
(g1204
g235
Ntp1964
Rp1965
(dp1966
g1208
(dp1967
sg1209
g2
sg259
S'c:/Users/Pietro/Documents/GitHub/Patriot-Missile-Defense/data/app.icf'
p1968
sbsS'IwClassFactory.h'
p1969
g233
(g1204
g235
Ntp1970
Rp1971
(dp1972
g1208
g1090
sg1209
g1245
sg259
g1156
sbsS'file.h'
p1973
g233
(g1204
g235
Ntp1974
Rp1975
(dp1976
g1208
g1216
sg1209
g1348
sg259
S'c:/marmalade/6.3/s3e/h/std/sys/file.h'
p1977
sbsS'cstring'
p1978
g233
(g1204
g235
Ntp1979
Rp1980
(dp1981
g1208
g1216
sg1209
g1217
sg259
S'c:/marmalade/6.3/s3e/h/std/c++/cstring'
p1982
sbsS'iwutil.config.txt'
p1983
g233
(g1204
g235
Ntp1984
Rp1985
(dp1986
g1208
g1090
sg1209
g1245
sg259
g1126
sbsS's3eSMS.h'
p1987
g233
(g1204
g235
Ntp1988
Rp1989
(dp1990
g1208
g1216
sg1209
g1422
sg259
S'c:/marmalade/6.3/s3e/h/ext/s3eSMS.h'
p1991
sbsS'limits.h'
p1992
g233
(g1204
g235
Ntp1993
Rp1994
(dp1995
g1208
g1216
sg1209
g1238
sg259
S'c:/marmalade/6.3/s3e/h/std/limits.h'
p1996
sbsS'iwgl.config.txt'
p1997
g233
(g1204
g235
Ntp1998
Rp1999
(dp2000
g1208
g898
sg1209
g1315
sg259
g902
sbsS'iwgx_public.defines.txt'
p2001
g233
(g1204
g235
Ntp2002
Rp2003
(dp2004
g1208
g1036
sg1209
g1334
sg259
g1045
sbsS'IwMaterial.h'
p2005
g233
(g1204
g235
Ntp2006
Rp2007
(dp2008
g1208
g1036
sg1209
g1334
sg259
g1051
sbsS'IwGxSurface.h'
p2009
g233
(g1204
g235
Ntp2010
Rp2011
(dp2012
g1208
g1036
sg1209
g1334
sg259
g1055
sbsS's3eSocket.h'
p2013
g233
(g1204
g235
Ntp2014
Rp2015
(dp2016
g1208
g1216
sg1209
g1232
sg259
S'c:/marmalade/6.3/s3e/h/s3eSocket.h'
p2017
sbsS'IwAutoFile.h'
p2018
g233
(g1204
g235
Ntp2019
Rp2020
(dp2021
g1208
g1090
sg1209
g1245
sg259
g1176
sbsS'ipc.h'
p2022
g233
(g1204
g235
Ntp2023
Rp2024
(dp2025
g1208
g1216
sg1209
g1348
sg259
S'c:/marmalade/6.3/s3e/h/std/sys/ipc.h'
p2026
sbsS'poll_1.h'
p2027
g233
(g1204
g235
Ntp2028
Rp2029
(dp2030
g1208
g1216
sg1209
g1348
sg259
S'c:/marmalade/6.3/s3e/h/std/sys/poll.h'
p2031
sbsS's3eThread.h'
p2032
g233
(g1204
g235
Ntp2033
Rp2034
(dp2035
g1208
g1216
sg1209
g1232
sg259
S'c:/marmalade/6.3/s3e/h/s3eThread.h'
p2036
sbsS'ucontext.h'
p2037
g233
(g1204
g235
Ntp2038
Rp2039
(dp2040
g1208
g1216
sg1209
g1238
sg259
S'c:/marmalade/6.3/s3e/h/std/ucontext.h'
p2041
sbsS'time.h'
p2042
g233
(g1204
g235
Ntp2043
Rp2044
(dp2045
g1208
g1216
sg1209
g1238
sg259
S'c:/marmalade/6.3/s3e/h/std/time.h'
p2046
sbsS'jchuff.h'
p2047
g233
(g1204
g235
Ntp2048
Rp2049
(dp2050
g1208
g820
sg1209
g1290
sg259
g837
sbsS's3eSoundRecord.h'
p2051
g233
(g1204
g235
Ntp2052
Rp2053
(dp2054
g1208
g1216
sg1209
g1232
sg259
S'c:/marmalade/6.3/s3e/h/s3eSoundRecord.h'
p2055
sbsS'IwFibre.h'
p2056
g233
(g1204
g235
Ntp2057
Rp2058
(dp2059
g1208
g1090
sg1209
g1245
sg259
g1093
sbsS's3eVersion.h'
p2060
g233
(g1204
g235
Ntp2061
Rp2062
(dp2063
g1208
g1216
sg1209
g1232
sg259
S'c:/marmalade/6.3/s3e/h/s3eVersion.h'
p2064
sbsS'IwGxFontGlyph.h'
p2065
g233
(g1204
g235
Ntp2066
Rp2067
(dp2068
g1208
g925
sg1209
g1210
sg259
g932
sbsS's3eTypes.h'
p2069
g233
(g1204
g235
Ntp2070
Rp2071
(dp2072
g1208
g1216
sg1209
g1232
sg259
S'c:/marmalade/6.3/s3e/h/s3eTypes.h'
p2073
sbsS'signal_2.h'
p2074
g233
(g1204
g235
Ntp2075
Rp2076
(dp2077
g1208
g1216
sg1209
g1217
sg259
S'c:/marmalade/6.3/s3e/h/std/c++/signal.h'
p2078
sbsS'termios.h'
p2079
g233
(g1204
g235
Ntp2080
Rp2081
(dp2082
g1208
g1216
sg1209
g1238
sg259
S'c:/marmalade/6.3/s3e/h/std/termios.h'
p2083
sbsS'slist'
p2084
g233
(g1204
g235
Ntp2085
Rp2086
(dp2087
g1208
g1216
sg1209
g1217
sg259
S'c:/marmalade/6.3/s3e/h/std/c++/slist'
p2088
sbsS'cstdlib'
p2089
g233
(g1204
g235
Ntp2090
Rp2091
(dp2092
g1208
g1216
sg1209
g1217
sg259
S'c:/marmalade/6.3/s3e/h/std/c++/cstdlib'
p2093
sbsS's3eLocation.h'
p2094
g233
(g1204
g235
Ntp2095
Rp2096
(dp2097
g1208
g1216
sg1209
g1232
sg259
S'c:/marmalade/6.3/s3e/h/s3eLocation.h'
p2098
sbsS'IwMemBucketHelpers.h'
p2099
g233
(g1204
g235
Ntp2100
Rp2101
(dp2102
g1208
g1090
sg1209
g1245
sg259
g1152
sbsS's3eHash.h'
p2103
g233
(g1204
g235
Ntp2104
Rp2105
(dp2106
g1208
g1216
sg1209
g1232
sg259
S'c:/marmalade/6.3/s3e/h/s3eHash.h'
p2107
sbsS'IwGeomFMat.h'
p2108
g233
(g1204
g235
Ntp2109
Rp2110
(dp2111
g1208
g944
sg1209
g1226
sg259
g988
sbsS'type_traits.h'
p2112
g233
(g1204
g235
Ntp2113
Rp2114
(dp2115
g1208
g1216
sg1209
g1217
sg259
S'c:/marmalade/6.3/s3e/h/std/c++/type_traits.h'
p2116
sbsS'IwMenu.h'
p2117
g233
(g1204
g235
Ntp2118
Rp2119
(dp2120
g1208
g1090
sg1209
g1245
sg259
g1158
sbsS'IwResHandlerITX.h'
p2121
g233
(g1204
g235
Ntp2122
Rp2123
(dp2124
g1208
g1012
sg1209
g1459
sg259
g1022
sbsS'IwArray.h'
p2125
g233
(g1204
g235
Ntp2126
Rp2127
(dp2128
g1208
g1090
sg1209
g1245
sg259
g1105
sbsS'IwUTF8.h'
p2129
g233
(g1204
g235
Ntp2130
Rp2131
(dp2132
g1208
g1090
sg1209
g1245
sg259
g1150
sbsS'math_rvct.h'
p2133
g233
(g1204
g235
Ntp2134
Rp2135
(dp2136
g1208
g1216
sg1209
g1238
sg259
S'c:/marmalade/6.3/s3e/h/std/math_rvct.h'
p2137
sbsS'IwUtil.h'
p2138
g233
(g1204
g235
Ntp2139
Rp2140
(dp2141
g1208
g1090
sg1209
g1245
sg259
g1124
sbsS'IwGeomVec3.h'
p2142
g233
(g1204
g235
Ntp2143
Rp2144
(dp2145
g1208
g944
sg1209
g1226
sg259
g949
sbsS'wctype.h'
p2146
g233
(g1204
g235
Ntp2147
Rp2148
(dp2149
g1208
g1216
sg1209
g1238
sg259
S'c:/marmalade/6.3/s3e/h/std/wctype.h'
p2150
sbsS'cstddef'
p2151
g233
(g1204
g235
Ntp2152
Rp2153
(dp2154
g1208
g1216
sg1209
g1217
sg259
S'c:/marmalade/6.3/s3e/h/std/c++/cstddef'
p2155
sbsS'assert.h'
p2156
g233
(g1204
g235
Ntp2157
Rp2158
(dp2159
g1208
g1216
sg1209
g1238
sg259
S'c:/marmalade/6.3/s3e/h/std/assert.h'
p2160
sbsS'mman.h'
p2161
g233
(g1204
g235
Ntp2162
Rp2163
(dp2164
g1208
g1216
sg1209
g1348
sg259
S'c:/marmalade/6.3/s3e/h/std/sys/mman.h'
p2165
sbsS'IwRandom.h'
p2166
g233
(g1204
g235
Ntp2167
Rp2168
(dp2169
g1208
g1090
sg1209
g1245
sg259
g1154
sbsS'libgen.h'
p2170
g233
(g1204
g235
Ntp2171
Rp2172
(dp2173
g1208
g1216
sg1209
g1238
sg259
S'c:/marmalade/6.3/s3e/h/std/libgen.h'
p2174
sbsS'utsname.h'
p2175
g233
(g1204
g235
Ntp2176
Rp2177
(dp2178
g1208
g1216
sg1209
g1348
sg259
S'c:/marmalade/6.3/s3e/h/std/sys/utsname.h'
p2179
sbsS'wait.h'
p2180
g233
(g1204
g235
Ntp2181
Rp2182
(dp2183
g1208
g1216
sg1209
g1348
sg259
S'c:/marmalade/6.3/s3e/h/std/sys/wait.h'
p2184
sbsS'param.h'
p2185
g233
(g1204
g235
Ntp2186
Rp2187
(dp2188
g1208
g1216
sg1209
g1348
sg259
S'c:/marmalade/6.3/s3e/h/std/sys/param.h'
p2189
sbsS'effects.h'
p2190
g233
(g1204
g235
Ntp2191
Rp2192
(dp2193
g1208
g866
sg1209
g1366
sg259
g881
sbsS'IwDivide.h'
p2194
g233
(g1204
g235
Ntp2195
Rp2196
(dp2197
g1208
g1090
sg1209
g1245
sg259
g1109
sbsS'IwResManager.h'
p2198
g233
(g1204
g235
Ntp2199
Rp2200
(dp2201
g1208
g1012
sg1209
g1459
sg259
g1028
sbsS'ostream'
p2202
g233
(g1204
g235
Ntp2203
Rp2204
(dp2205
g1208
g1216
sg1209
g1217
sg259
S'c:/marmalade/6.3/s3e/h/std/c++/ostream'
p2206
sbsS'cwctype'
p2207
g233
(g1204
g235
Ntp2208
Rp2209
(dp2210
g1208
g1216
sg1209
g1217
sg259
S'c:/marmalade/6.3/s3e/h/std/c++/cwctype'
p2211
sbsS'set'
p2212
g233
(g1204
g235
Ntp2213
Rp2214
(dp2215
g1208
g1216
sg1209
g1217
sg259
S'c:/marmalade/6.3/s3e/h/std/c++/set'
p2216
sbsS'IwGeomSQuat.h'
p2217
g233
(g1204
g235
Ntp2218
Rp2219
(dp2220
g1208
g944
sg1209
g1226
sg259
g957
sbsS'locale'
p2221
g233
(g1204
g235
Ntp2222
Rp2223
(dp2224
g1208
g1216
sg1209
g1217
sg259
S'c:/marmalade/6.3/s3e/h/std/c++/locale'
p2225
sbsS'cstdio'
p2226
g233
(g1204
g235
Ntp2227
Rp2228
(dp2229
g1208
g1216
sg1209
g1217
sg259
S'c:/marmalade/6.3/s3e/h/std/c++/cstdio'
p2230
sbsS'cdjpeg.h'
p2231
g233
(g1204
g235
Ntp2232
Rp2233
(dp2234
g1208
g820
sg1209
g1290
sg259
g835
sbsS'IwList.h'
p2235
g233
(g1204
g235
Ntp2236
Rp2237
(dp2238
g1208
g1090
sg1209
g1245
sg259
g1148
sbsS'inttypes.h'
p2239
g233
(g1204
g235
Ntp2240
Rp2241
(dp2242
g1208
g1216
sg1209
g1238
sg259
S'c:/marmalade/6.3/s3e/h/std/inttypes.h'
p2243
sbsS'dirent.h'
p2244
g233
(g1204
g235
Ntp2245
Rp2246
(dp2247
g1208
g1216
sg1209
g1238
sg259
S'c:/marmalade/6.3/s3e/h/std/dirent.h'
p2248
sbsS'IwFColour.h'
p2249
g233
(g1204
g235
Ntp2250
Rp2251
(dp2252
g1208
g1036
sg1209
g1334
sg259
g1061
sbsS'transupp.h'
p2253
g233
(g1204
g235
Ntp2254
Rp2255
(dp2256
g1208
g820
sg1209
g1290
sg259
g827
sbsS'IwMath.h'
p2257
g233
(g1204
g235
Ntp2258
Rp2259
(dp2260
g1208
g1090
sg1209
g1245
sg259
g1180
sbsS'IwGeomQuat.h'
p2261
g233
(g1204
g235
Ntp2262
Rp2263
(dp2264
g1208
g944
sg1209
g1226
sg259
g942
sbsS'glplatform.h'
p2265
g233
(g1204
g235
Ntp2266
Rp2267
(dp2268
g1208
g1216
sg1209
g1753
sg259
S'c:/marmalade/6.3/s3e/h/GLES/glplatform.h'
p2269
sbsS'bitset'
p2270
g233
(g1204
g235
Ntp2271
Rp2272
(dp2273
g1208
g1216
sg1209
g1217
sg259
S'c:/marmalade/6.3/s3e/h/std/c++/bitset'
p2274
sbsS'alloca.h'
p2275
g233
(g1204
g235
Ntp2276
Rp2277
(dp2278
g1208
g1216
sg1209
g1238
sg259
S'c:/marmalade/6.3/s3e/h/std/alloca.h'
p2279
sbsS'IwResHandler.h'
p2280
g233
(g1204
g235
Ntp2281
Rp2282
(dp2283
g1208
g1012
sg1209
g1459
sg259
g1020
sbsS'IwResHandlerMTL.h'
p2284
g233
(g1204
g235
Ntp2285
Rp2286
(dp2287
g1208
g1036
sg1209
g1334
sg259
g1057
sbsS'IwRuntime.h'
p2288
g233
(g1204
g235
Ntp2289
Rp2290
(dp2291
g1208
g1090
sg1209
g1245
sg259
g1107
sbsS'limits'
p2292
g233
(g1204
g235
Ntp2293
Rp2294
(dp2295
g1208
g1216
sg1209
g1217
sg259
S'c:/marmalade/6.3/s3e/h/std/c++/limits'
p2296
sbsS'IwGeomBBox.h'
p2297
g233
(g1204
g235
Ntp2298
Rp2299
(dp2300
g1208
g944
sg1209
g1226
sg259
g994
sbsS's3eContacts.h'
p2301
g233
(g1204
g235
Ntp2302
Rp2303
(dp2304
g1208
g1216
sg1209
g1232
sg259
S'c:/marmalade/6.3/s3e/h/s3eContacts.h'
p2305
sbsS's3eLicense.h'
p2306
g233
(g1204
g235
Ntp2307
Rp2308
(dp2309
g1208
g1216
sg1209
g1232
sg259
S'c:/marmalade/6.3/s3e/h/s3eLicense.h'
p2310
sbsS'iwgx.config.txt'
p2311
g233
(g1204
g235
Ntp2312
Rp2313
(dp2314
g1208
g1036
sg1209
g1334
sg259
g1037
sbsS'IwTextParser.h'
p2315
g233
(g1204
g235
Ntp2316
Rp2317
(dp2318
g1208
g1090
sg1209
g1245
sg259
g1186
sbsS's3eTimer.h'
p2319
g233
(g1204
g235
Ntp2320
Rp2321
(dp2322
g1208
g1216
sg1209
g1232
sg259
S'c:/marmalade/6.3/s3e/h/s3eTimer.h'
p2323
sbsS'IwGeomVec.h'
p2324
g233
(g1204
g235
Ntp2325
Rp2326
(dp2327
g1208
g944
sg1209
g1226
sg259
g1000
sbsS'IwSerialise.h'
p2328
g233
(g1204
g235
Ntp2329
Rp2330
(dp2331
g1208
g1090
sg1209
g1245
sg259
g1128
sbsS'cstdarg'
p2332
g233
(g1204
g235
Ntp2333
Rp2334
(dp2335
g1208
g1216
sg1209
g1217
sg259
S'c:/marmalade/6.3/s3e/h/std/c++/cstdarg'
p2336
sbsS'gl2ext.h'
p2337
g233
(g1204
g235
Ntp2338
Rp2339
(dp2340
g1208
g1216
sg1209
g1451
sg259
S'c:/marmalade/6.3/s3e/h/GLES2/gl2ext.h'
p2341
sbsS'IwChar.h'
p2342
g233
(g1204
g235
Ntp2343
Rp2344
(dp2345
g1208
g1090
sg1209
g1245
sg259
g1122
sbsS's3eSound.h'
p2346
g233
(g1204
g235
Ntp2347
Rp2348
(dp2349
g1208
g1216
sg1209
g1232
sg259
S'c:/marmalade/6.3/s3e/h/s3eSound.h'
p2350
sbsS'IwOptimiseThumb.h'
p2351
g233
(g1204
g235
Ntp2352
Rp2353
(dp2354
g1208
g1090
sg1209
g1245
sg259
g1134
sbsS'exception.h'
p2355
g233
(g1204
g235
Ntp2356
Rp2357
(dp2358
g1208
g1216
sg1209
g1217
sg259
S'c:/marmalade/6.3/s3e/h/std/c++/exception.h'
p2359
sbsS'iwgeom.config.txt'
p2360
g233
(g1204
g235
Ntp2361
Rp2362
(dp2363
g1208
g944
sg1209
g1226
sg259
g959
sbsS'iwgx.mkf'
p2364
g233
(g1204
g235
Ntp2365
Rp2366
(dp2367
g1208
g1071
sg1209
g1334
sg259
g1069
sbsS'gl.h'
p2368
g233
(g1204
g235
Ntp2369
Rp2370
(dp2371
g1208
g1216
sg1209
g1753
sg259
S'c:/marmalade/6.3/s3e/h/GLES/gl.h'
p2372
sbsS'zlib.h'
p2373
g233
(g1204
g235
Ntp2374
Rp2375
(dp2376
g1208
g1195
sg1209
g1848
sg259
g1193
sbsS'poll.h'
p2377
g233
(g1204
g235
Ntp2378
Rp2379
(dp2380
g1208
g1216
sg1209
g1238
sg259
S'c:/marmalade/6.3/s3e/h/std/poll.h'
p2381
sbsS'iwgl.mkf'
p2382
g233
(g1204
g235
Ntp2383
Rp2384
(dp2385
g1208
g901
sg1209
g1315
sg259
g899
sbsS'IwColour.h'
p2386
g233
(g1204
g235
Ntp2387
Rp2388
(dp2389
g1208
g1036
sg1209
g1334
sg259
g1063
sbsS's3eLibrary.h'
p2390
g233
(g1204
g235
Ntp2391
Rp2392
(dp2393
g1208
g1216
sg1209
g1422
sg259
S'c:/marmalade/6.3/s3e/h/ext/s3eLibrary.h'
p2394
sbsS'types.h'
p2395
g233
(g1204
g235
Ntp2396
Rp2397
(dp2398
g1208
g1216
sg1209
g1348
sg259
S'c:/marmalade/6.3/s3e/h/std/sys/types.h'
p2399
sbsS'ifaddrs.h'
p2400
g233
(g1204
g235
Ntp2401
Rp2402
(dp2403
g1208
g1216
sg1209
g1238
sg259
S'c:/marmalade/6.3/s3e/h/std/ifaddrs.h'
p2404
sbsS'strstream'
p2405
g233
(g1204
g235
Ntp2406
Rp2407
(dp2408
g1208
g1216
sg1209
g1217
sg259
S'c:/marmalade/6.3/s3e/h/std/c++/strstream'
p2409
sbsS'exception'
p2410
g233
(g1204
g235
Ntp2411
Rp2412
(dp2413
g1208
g1216
sg1209
g1217
sg259
S'c:/marmalade/6.3/s3e/h/std/c++/exception'
p2414
sbsS'rlocks.h'
p2415
g233
(g1204
g235
Ntp2416
Rp2417
(dp2418
g1208
g1216
sg1209
g1217
sg259
S'c:/marmalade/6.3/s3e/h/std/c++/rlocks.h'
p2419
sbsS'ioctl.h'
p2420
g233
(g1204
g235
Ntp2421
Rp2422
(dp2423
g1208
g1216
sg1209
g1348
sg259
S'c:/marmalade/6.3/s3e/h/std/sys/ioctl.h'
p2424
sbsS'rope'
p2425
g233
(g1204
g235
Ntp2426
Rp2427
(dp2428
g1208
g1216
sg1209
g1217
sg259
S'c:/marmalade/6.3/s3e/h/std/c++/rope'
p2429
sbsS'jinclude.h'
p2430
g233
(g1204
g235
Ntp2431
Rp2432
(dp2433
g1208
g820
sg1209
g1290
sg259
g821
sbsS'IwEvent.h'
p2434
g233
(g1204
g235
Ntp2435
Rp2436
(dp2437
g1208
g1090
sg1209
g1245
sg259
g1136
sbsS'IwOptimiseSize.h'
p2438
g233
(g1204
g235
Ntp2439
Rp2440
(dp2441
g1208
g1090
sg1209
g1245
sg259
g1103
sbsS'iwgxfont_public.defines.txt'
p2442
g233
(g1204
g235
Ntp2443
Rp2444
(dp2445
g1208
g925
sg1209
g1210
sg259
g930
sbsS'iconv.h'
p2446
g233
(g1204
g235
Ntp2447
Rp2448
(dp2449
g1208
g1216
sg1209
g1238
sg259
S'c:/marmalade/6.3/s3e/h/std/iconv.h'
p2450
sbsS'sendfile.h'
p2451
g233
(g1204
g235
Ntp2452
Rp2453
(dp2454
g1208
g1216
sg1209
g1348
sg259
S'c:/marmalade/6.3/s3e/h/std/sys/sendfile.h'
p2455
sbsS'IwGeomSphere.h'
p2456
g233
(g1204
g235
Ntp2457
Rp2458
(dp2459
g1208
g944
sg1209
g1226
sg259
g947
sbsS'tiniconv.mkf'
p2460
g233
(g1204
g235
Ntp2461
Rp2462
(dp2463
g1208
g859
sg1209
g1649
sg259
g857
sbsS'jdct.h'
p2464
g233
(g1204
g235
Ntp2465
Rp2466
(dp2467
g1208
g820
sg1209
g1290
sg259
g839
sbsS'cctype'
p2468
g233
(g1204
g235
Ntp2469
Rp2470
(dp2471
g1208
g1216
sg1209
g1217
sg259
S'c:/marmalade/6.3/s3e/h/std/c++/cctype'
p2472
sbsS's3eConfig.h'
p2473
g233
(g1204
g235
Ntp2474
Rp2475
(dp2476
g1208
g1216
sg1209
g1232
sg259
S'c:/marmalade/6.3/s3e/h/s3eConfig.h'
p2477
sbsS'IwHashString.h'
p2478
g233
(g1204
g235
Ntp2479
Rp2480
(dp2481
g1208
g1090
sg1209
g1245
sg259
g1164
sbsS'stat.h'
p2482
g233
(g1204
g235
Ntp2483
Rp2484
(dp2485
g1208
g1216
sg1209
g1348
sg259
S'c:/marmalade/6.3/s3e/h/std/sys/stat.h'
p2486
sbsS'byteswap.h'
p2487
g233
(g1204
g235
Ntp2488
Rp2489
(dp2490
g1208
g1216
sg1209
g1238
sg259
S'c:/marmalade/6.3/s3e/h/std/byteswap.h'
p2491
sbsS'iwresmanager.mkf'
p2492
g233
(g1204
g235
Ntp2493
Rp2494
(dp2495
g1208
g1015
sg1209
g1459
sg259
g1013
sbsS'IwUtilInitTerm.h'
p2496
g233
(g1204
g235
Ntp2497
Rp2498
(dp2499
g1208
g1090
sg1209
g1245
sg259
g1113
sbsS'titlescreen.h'
p2500
g233
(g1204
g235
Ntp2501
Rp2502
(dp2503
g1208
g866
sg1209
g1366
sg259
g871
sbsS'pthread_1.h'
p2504
g233
(g1204
g235
Ntp2505
Rp2506
(dp2507
g1208
g1216
sg1209
g1217
sg259
S'c:/marmalade/6.3/s3e/h/std/c++/pthread.h'
p2508
sbsS'IwMemBucket.h'
p2509
g233
(g1204
g235
Ntp2510
Rp2511
(dp2512
g1208
g1090
sg1209
g1245
sg259
g1142
sbsS'complex'
p2513
g233
(g1204
g235
Ntp2514
Rp2515
(dp2516
g1208
g1216
sg1209
g1217
sg259
S'c:/marmalade/6.3/s3e/h/std/c++/complex'
p2517
sbsS'game.cpp'
p2518
g233
(g1204
g235
Ntp2519
Rp2520
(dp2521
g1208
g866
sg1209
g1366
sg259
g864
sbsS's3e.icf'
p2522
g233
(g1204
g235
Ntp2523
Rp2524
(dp2525
g1208
g1216
sg1209
g1232
sg259
S'c:/marmalade/6.3/s3e/s3e.icf'
p2526
sbsS'IwVariableBitField.h'
p2527
g233
(g1204
g235
Ntp2528
Rp2529
(dp2530
g1208
g1090
sg1209
g1245
sg259
g1132
sbsS'sem.h'
p2531
g233
(g1204
g235
Ntp2532
Rp2533
(dp2534
g1208
g1216
sg1209
g1348
sg259
S'c:/marmalade/6.3/s3e/h/std/sys/sem.h'
p2535
sbsS'IwGxFontState.h'
p2536
g233
(g1204
g235
Ntp2537
Rp2538
(dp2539
g1208
g925
sg1209
g1210
sg259
g928
sbsS'stdio.h'
p2540
g233
(g1204
g235
Ntp2541
Rp2542
(dp2543
g1208
g1216
sg1209
g1238
sg259
S'c:/marmalade/6.3/s3e/h/std/stdio.h'
p2544
sbsS'jmemsys.h'
p2545
g233
(g1204
g235
Ntp2546
Rp2547
(dp2548
g1208
g820
sg1209
g1290
sg259
g818
sbsS'ios'
p2549
g233
(g1204
g235
Ntp2550
Rp2551
(dp2552
g1208
g1216
sg1209
g1217
sg259
S'c:/marmalade/6.3/s3e/h/std/c++/ios'
p2553
sbsS'stack'
p2554
g233
(g1204
g235
Ntp2555
Rp2556
(dp2557
g1208
g1216
sg1209
g1217
sg259
S'c:/marmalade/6.3/s3e/h/std/c++/stack'
p2558
sbsS'new.h'
p2559
g233
(g1204
g235
Ntp2560
Rp2561
(dp2562
g1208
g1216
sg1209
g1217
sg259
S'c:/marmalade/6.3/s3e/h/std/c++/new.h'
p2563
sbsS's3eEMail.h'
p2564
g233
(g1204
g235
Ntp2565
Rp2566
(dp2567
g1208
g1216
sg1209
g1422
sg259
S'c:/marmalade/6.3/s3e/h/ext/s3eEMail.h'
p2568
sbsS's3eVideo.h'
p2569
g233
(g1204
g235
Ntp2570
Rp2571
(dp2572
g1208
g1216
sg1209
g1232
sg259
S'c:/marmalade/6.3/s3e/h/s3eVideo.h'
p2573
sbsS'IwFile.h'
p2574
g233
(g1204
g235
Ntp2575
Rp2576
(dp2577
g1208
g1090
sg1209
g1245
sg259
g1099
sbsS'pwd.h'
p2578
g233
(g1204
g235
Ntp2579
Rp2580
(dp2581
g1208
g1216
sg1209
g1238
sg259
S'c:/marmalade/6.3/s3e/h/std/pwd.h'
p2582
sbsS'IwClip.h'
p2583
g233
(g1204
g235
Ntp2584
Rp2585
(dp2586
g1208
g1036
sg1209
g1334
sg259
g1076
sbsS'iwresmanager.config.txt'
p2587
g233
(g1204
g235
Ntp2588
Rp2589
(dp2590
g1208
g1012
sg1209
g1459
sg259
g1024
sbsS'IwGxShaderTechnique.h'
p2591
g233
(g1204
g235
Ntp2592
Rp2593
(dp2594
g1208
g1036
sg1209
g1334
sg259
g1065
sbsS'IwCore.h'
p2595
g233
(g1204
g235
Ntp2596
Rp2597
(dp2598
g1208
g1090
sg1209
g1245
sg259
g1097
sbsS'cfloat'
p2599
g233
(g1204
g235
Ntp2600
Rp2601
(dp2602
g1208
g1216
sg1209
g1217
sg259
S'c:/marmalade/6.3/s3e/h/std/c++/cfloat'
p2603
sbsS'IwGeomMat2D.h'
p2604
g233
(g1204
g235
Ntp2605
Rp2606
(dp2607
g1208
g944
sg1209
g1226
sg259
g951
sbsS'IwAllocator.h'
p2608
g233
(g1204
g235
Ntp2609
Rp2610
(dp2611
g1208
g1090
sg1209
g1245
sg259
g1182
sbsS'IwPath.h'
p2612
g233
(g1204
g235
Ntp2613
Rp2614
(dp2615
g1208
g1090
sg1209
g1245
sg259
g1111
sbsS'iwgxfont.mkf'
p2616
g233
(g1204
g235
Ntp2617
Rp2618
(dp2619
g1208
g922
sg1209
g1210
sg259
g920
sbsS'IwTexture.h'
p2620
g233
(g1204
g235
Ntp2621
Rp2622
(dp2623
g1208
g1036
sg1209
g1334
sg259
g1084
sbsS's3eAccelerometer.h'
p2624
g233
(g1204
g235
Ntp2625
Rp2626
(dp2627
g1208
g1216
sg1209
g1232
sg259
S'c:/marmalade/6.3/s3e/h/s3eAccelerometer.h'
p2628
sbsS'setjmp.h'
p2629
g233
(g1204
g235
Ntp2630
Rp2631
(dp2632
g1208
g1216
sg1209
g1238
sg259
S'c:/marmalade/6.3/s3e/h/std/setjmp.h'
p2633
sbsS'pngconf.h'
p2634
g233
(g1204
g235
Ntp2635
Rp2636
(dp2637
g1208
g809
sg1209
g1903
sg259
g810
sbsS'IwTextParseable.h'
p2638
g233
(g1204
g235
Ntp2639
Rp2640
(dp2641
g1208
g1090
sg1209
g1245
sg259
g1168
sbsS'istream.h'
p2642
g233
(g1204
g235
Ntp2643
Rp2644
(dp2645
g1208
g1216
sg1209
g1217
sg259
S'c:/marmalade/6.3/s3e/h/std/c++/istream.h'
p2646
sbsS'stdint.h'
p2647
g233
(g1204
g235
Ntp2648
Rp2649
(dp2650
g1208
g1216
sg1209
g1238
sg259
S'c:/marmalade/6.3/s3e/h/std/stdint.h'
p2651
sbsS'semaphore.h'
p2652
g233
(g1204
g235
Ntp2653
Rp2654
(dp2655
g1208
g1216
sg1209
g1238
sg259
S'c:/marmalade/6.3/s3e/h/std/semaphore.h'
p2656
sbsS'ctime'
p2657
g233
(g1204
g235
Ntp2658
Rp2659
(dp2660
g1208
g1216
sg1209
g1217
sg259
S'c:/marmalade/6.3/s3e/h/std/c++/ctime'
p2661
sbsS'sstream'
p2662
g233
(g1204
g235
Ntp2663
Rp2664
(dp2665
g1208
g1216
sg1209
g1217
sg259
S'c:/marmalade/6.3/s3e/h/std/c++/sstream'
p2666
sbsS'IwGeomFBBox.h'
p2667
g233
(g1204
g235
Ntp2668
Rp2669
(dp2670
g1208
g944
sg1209
g1226
sg259
g965
sbsS'IwDebugPrim.h'
p2671
g233
(g1204
g235
Ntp2672
Rp2673
(dp2674
g1208
g1036
sg1209
g1334
sg259
g1041
sbsS'IwGxFontContainer.h'
p2675
g233
(g1204
g235
Ntp2676
Rp2677
(dp2678
g1208
g925
sg1209
g1210
sg259
g934
sbsS'IwGeomSVec3.h'
p2679
g233
(g1204
g235
Ntp2680
Rp2681
(dp2682
g1208
g944
sg1209
g1226
sg259
g986
sbsS'cassert'
p2683
g233
(g1204
g235
Ntp2684
Rp2685
(dp2686
g1208
g1216
sg1209
g1217
sg259
S'c:/marmalade/6.3/s3e/h/std/c++/cassert'
p2687
sbsS'IwGeomFVec3.h'
p2688
g233
(g1204
g235
Ntp2689
Rp2690
(dp2691
g1208
g944
sg1209
g1226
sg259
g990
sbsS'streambuf'
p2692
g233
(g1204
g235
Ntp2693
Rp2694
(dp2695
g1208
g1216
sg1209
g1217
sg259
S'c:/marmalade/6.3/s3e/h/std/c++/streambuf'
p2696
sbsS's3eMetrics.h'
p2697
g233
(g1204
g235
Ntp2698
Rp2699
(dp2700
g1208
g1216
sg1209
g1422
sg259
S'c:/marmalade/6.3/s3e/h/ext/s3eMetrics.h'
p2701
sbsS'IwGxFont.h'
p2702
g233
(g1204
g235
Ntp2703
Rp2704
(dp2705
g1208
g925
sg1209
g1210
sg259
g936
sbsS's3eSecureStorage.h'
p2706
g233
(g1204
g235
Ntp2707
Rp2708
(dp2709
g1208
g1216
sg1209
g1232
sg259
S'c:/marmalade/6.3/s3e/h/s3eSecureStorage.h'
p2710
sbsS'string.h'
p2711
g233
(g1204
g235
Ntp2712
Rp2713
(dp2714
g1208
g1216
sg1209
g1238
sg259
S'c:/marmalade/6.3/s3e/h/std/string.h'
p2715
sbsS'IwResource.h'
p2716
g233
(g1204
g235
Ntp2717
Rp2718
(dp2719
g1208
g1090
sg1209
g1245
sg259
g1162
sbsS'libjpeg.mkf'
p2720
g233
(g1204
g235
Ntp2721
Rp2722
(dp2723
g1208
g849
sg1209
(lp2724
g815
asg259
g847
sbsS'IwGxDebug.h'
p2725
g233
(g1204
g235
Ntp2726
Rp2727
(dp2728
g1208
g1036
sg1209
g1334
sg259
g1082
sbsS'pthread_types.h'
p2729
g233
(g1204
g235
Ntp2730
Rp2731
(dp2732
g1208
g1216
sg1209
g1238
sg259
S'c:/marmalade/6.3/s3e/h/std/pthread_types.h'
p2733
sbsS'iomanip.h'
p2734
g233
(g1204
g235
Ntp2735
Rp2736
(dp2737
g1208
g1216
sg1209
g1217
sg259
S'c:/marmalade/6.3/s3e/h/std/c++/iomanip.h'
p2738
sbsS'rendering.h'
p2739
g233
(g1204
g235
Ntp2740
Rp2741
(dp2742
g1208
g866
sg1209
g1366
sg259
g883
sbsS'IwKeymap.h'
p2743
g233
(g1204
g235
Ntp2744
Rp2745
(dp2746
g1208
g1090
sg1209
g1245
sg259
g1188
sbsS'IwDebug.h'
p2747
g233
(g1204
g235
Ntp2748
Rp2749
(dp2750
g1208
g1090
sg1209
g1245
sg259
g1091
sbsS's3eIOSBackgroundAudio.h'
p2751
g233
(g1204
g235
Ntp2752
Rp2753
(dp2754
g1208
g1216
sg1209
g1422
sg259
S'c:/marmalade/6.3/s3e/h/ext/s3eIOSBackgroundAudio.h'
p2755
sbsS'IwGeomMenu.h'
p2756
g233
(g1204
g235
Ntp2757
Rp2758
(dp2759
g1208
g944
sg1209
g1226
sg259
g982
sbsS'IwDivTable.h'
p2760
g233
(g1204
g235
Ntp2761
Rp2762
(dp2763
g1208
g1090
sg1209
g1245
sg259
g1146
sbsS'ctype.h'
p2764
g233
(g1204
g235
Ntp2765
Rp2766
(dp2767
g1208
g1216
sg1209
g1238
sg259
S'c:/marmalade/6.3/s3e/h/std/ctype.h'
p2768
sbsS'IwGeomMat.h'
p2769
g233
(g1204
g235
Ntp2770
Rp2771
(dp2772
g1208
g944
sg1209
g1226
sg259
g955
sbsS'IwResGroup.h'
p2773
g233
(g1204
g235
Ntp2774
Rp2775
(dp2776
g1208
g1012
sg1209
g1459
sg259
g1010
sbsS'signal_1.h'
p2777
g233
(g1204
g235
Ntp2778
Rp2779
(dp2780
g1208
g1216
sg1209
g1348
sg259
S'c:/marmalade/6.3/s3e/h/std/sys/signal.h'
p2781
sbsS'main.cpp'
p2782
g233
(g1204
g235
Ntp2783
Rp2784
(dp2785
g1208
g866
sg1209
g1366
sg259
g873
sbsS'shm.h'
p2786
g233
(g1204
g235
Ntp2787
Rp2788
(dp2789
g1208
g1216
sg1209
g1348
sg259
S'c:/marmalade/6.3/s3e/h/std/sys/shm.h'
p2790
sbsS'jpegint.h'
p2791
g233
(g1204
g235
Ntp2792
Rp2793
(dp2794
g1208
g820
sg1209
g1290
sg259
g845
sbsS'prctl.h'
p2795
g233
(g1204
g235
Ntp2796
Rp2797
(dp2798
g1208
g1216
sg1209
g1348
sg259
S'c:/marmalade/6.3/s3e/h/std/sys/prctl.h'
p2799
sbsS'un.h'
p2800
g233
(g1204
g235
Ntp2801
Rp2802
(dp2803
g1208
g1216
sg1209
g1348
sg259
S'c:/marmalade/6.3/s3e/h/std/sys/un.h'
p2804
sbsS'utility'
p2805
g233
(g1204
g235
Ntp2806
Rp2807
(dp2808
g1208
g1216
sg1209
g1217
sg259
S'c:/marmalade/6.3/s3e/h/std/c++/utility'
p2809
sbsS'IwGeomLegacy.h'
p2810
g233
(g1204
g235
Ntp2811
Rp2812
(dp2813
g1208
g944
sg1209
g1226
sg259
g998
sbsS'IwTPage.h'
p2814
g233
(g1204
g235
Ntp2815
Rp2816
(dp2817
g1208
g1036
sg1209
g1334
sg259
g1059
sbsS'IwResSerialise.h'
p2818
g233
(g1204
g235
Ntp2819
Rp2820
(dp2821
g1208
g1012
sg1209
g1459
sg259
g1026
sbsS's3eCrypto.h'
p2822
g233
(g1204
g235
Ntp2823
Rp2824
(dp2825
g1208
g1216
sg1209
g1232
sg259
S'c:/marmalade/6.3/s3e/h/s3eCrypto.h'
p2826
sbsS's3eKeyboard.h'
p2827
g233
(g1204
g235
Ntp2828
Rp2829
(dp2830
g1208
g1216
sg1209
g1232
sg259
S'c:/marmalade/6.3/s3e/h/s3eKeyboard.h'
p2831
sbsS'fcntl.h'
p2832
g233
(g1204
g235
Ntp2833
Rp2834
(dp2835
g1208
g1216
sg1209
g1238
sg259
S'c:/marmalade/6.3/s3e/h/std/fcntl.h'
p2836
sbsS'memory.h'
p2837
g233
(g1204
g235
Ntp2838
Rp2839
(dp2840
g1208
g1216
sg1209
g1238
sg259
S'c:/marmalade/6.3/s3e/h/std/memory.h'
p2841
sbsS'pthread.h'
p2842
g233
(g1204
g235
Ntp2843
Rp2844
(dp2845
g1208
g1216
sg1209
g1238
sg259
S'c:/marmalade/6.3/s3e/h/std/pthread.h'
p2846
sbsS'IwGeomIntersect.h'
p2847
g233
(g1204
g235
Ntp2848
Rp2849
(dp2850
g1208
g944
sg1209
g1226
sg259
g972
sbsS'algorithm'
p2851
g233
(g1204
g235
Ntp2852
Rp2853
(dp2854
g1208
g1216
sg1209
g1217
sg259
S'c:/marmalade/6.3/s3e/h/std/c++/algorithm'
p2855
sbsS'egl_1.h'
p2856
g233
(g1204
g235
Ntp2857
Rp2858
(dp2859
g1208
g1216
sg1209
g1753
sg259
S'c:/marmalade/6.3/s3e/h/GLES/egl.h'
p2860
sbsS'ostream.h'
p2861
g233
(g1204
g235
Ntp2862
Rp2863
(dp2864
g1208
g1216
sg1209
g1217
sg259
S'c:/marmalade/6.3/s3e/h/std/c++/ostream.h'
p2865
sbsS'stl_user_config.h'
p2866
g233
(g1204
g235
Ntp2867
Rp2868
(dp2869
g1208
g1216
sg1209
g1217
sg259
S'c:/marmalade/6.3/s3e/h/std/c++/stl_user_config.h'
p2870
sbsS'IwProfileMenu.h'
p2871
g233
(g1204
g235
Ntp2872
Rp2873
(dp2874
g1208
g1090
sg1209
g1245
sg259
g1140
sbsS'app.mkf'
p2875
g233
(g1204
g235
Ntp2876
Rp2877
(dp2878
g1208
g891
sg1209
(lp2879
g860
asg259
g889
sbsS'MarmaladeVersion.h'
p2880
g233
(g1204
g235
Ntp2881
Rp2882
(dp2883
g1208
g1216
sg1209
g1232
sg259
S'c:/marmalade/6.3/s3e/h/MarmaladeVersion.h'
p2884
sbsS'ios.h'
p2885
g233
(g1204
g235
Ntp2886
Rp2887
(dp2888
g1208
g1216
sg1209
g1217
sg259
S'c:/marmalade/6.3/s3e/h/std/c++/ios.h'
p2889
sbsS'IwImageHelper.h'
p2890
g233
(g1204
g235
Ntp2891
Rp2892
(dp2893
g1208
g1090
sg1209
g1245
sg259
g1166
sbsS'hash_set'
p2894
g233
(g1204
g235
Ntp2895
Rp2896
(dp2897
g1208
g1216
sg1209
g1217
sg259
S'c:/marmalade/6.3/s3e/h/std/c++/hash_set'
p2898
sbsS'IwGeomFQuat.h'
p2899
g233
(g1204
g235
Ntp2900
Rp2901
(dp2902
g1208
g944
sg1209
g1226
sg259
g984
sbsS'jmorecfg.h'
p2903
g233
(g1204
g235
Ntp2904
Rp2905
(dp2906
g1208
g820
sg1209
g1290
sg259
g829
sbsS'eglplatform.h'
p2907
g233
(g1204
g235
Ntp2908
Rp2909
(dp2910
g1208
g1216
sg1209
g1530
sg259
S'c:/marmalade/6.3/s3e/h/EGL/eglplatform.h'
p2911
sbsS'localise.cpp'
p2912
g233
(g1204
g235
Ntp2913
Rp2914
(dp2915
g1208
g866
sg1209
g1366
sg259
g875
sbsS'stdbool.h'
p2916
g233
(g1204
g235
Ntp2917
Rp2918
(dp2919
g1208
g1216
sg1209
g1238
sg259
S'c:/marmalade/6.3/s3e/h/std/stdbool.h'
p2920
sbsS'math_gcc.h'
p2921
g233
(g1204
g235
Ntp2922
Rp2923
(dp2924
g1208
g1216
sg1209
g1238
sg259
S'c:/marmalade/6.3/s3e/h/std/math_gcc.h'
p2925
sbsS's3eMemory.h'
p2926
g233
(g1204
g235
Ntp2927
Rp2928
(dp2929
g1208
g1216
sg1209
g1232
sg259
S'c:/marmalade/6.3/s3e/h/s3eMemory.h'
p2930
sbsS'strings.h'
p2931
g233
(g1204
g235
Ntp2932
Rp2933
(dp2934
g1208
g1216
sg1209
g1238
sg259
S'c:/marmalade/6.3/s3e/h/std/strings.h'
p2935
sbsS's3eFile.h'
p2936
g233
(g1204
g235
Ntp2937
Rp2938
(dp2939
g1208
g1216
sg1209
g1232
sg259
S'c:/marmalade/6.3/s3e/h/s3eFile.h'
p2940
sbsS'IwGxTypes.h'
p2941
g233
(g1204
g235
Ntp2942
Rp2943
(dp2944
g1208
g1036
sg1209
g1334
sg259
g1067
sbsS'cerrno'
p2945
g233
(g1204
g235
Ntp2946
Rp2947
(dp2948
g1208
g1216
sg1209
g1217
sg259
S'c:/marmalade/6.3/s3e/h/std/c++/cerrno'
p2949
sbsS'resource.h'
p2950
g233
(g1204
g235
Ntp2951
Rp2952
(dp2953
g1208
g1216
sg1209
g1348
sg259
S'c:/marmalade/6.3/s3e/h/std/sys/resource.h'
p2954
sbsS'clocale'
p2955
g233
(g1204
g235
Ntp2956
Rp2957
(dp2958
g1208
g1216
sg1209
g1217
sg259
S'c:/marmalade/6.3/s3e/h/std/c++/clocale'
p2959
sbsS'csetjmp'
p2960
g233
(g1204
g235
Ntp2961
Rp2962
(dp2963
g1208
g1216
sg1209
g1217
sg259
S'c:/marmalade/6.3/s3e/h/std/c++/csetjmp'
p2964
sbsS'netdb.h'
p2965
g233
(g1204
g235
Ntp2966
Rp2967
(dp2968
g1208
g1216
sg1209
g1238
sg259
S'c:/marmalade/6.3/s3e/h/std/netdb.h'
p2969
sbsS's3eAndroidJNI.h'
p2970
g233
(g1204
g235
Ntp2971
Rp2972
(dp2973
g1208
g1216
sg1209
g1422
sg259
S'c:/marmalade/6.3/s3e/h/ext/s3eAndroidJNI.h'
p2974
sbsS'stdexcept'
p2975
g233
(g1204
g235
Ntp2976
Rp2977
(dp2978
g1208
g1216
sg1209
g1217
sg259
S'c:/marmalade/6.3/s3e/h/std/c++/stdexcept'
p2979
sbsS'math.h'
p2980
g233
(g1204
g235
Ntp2981
Rp2982
(dp2983
g1208
g1216
sg1209
g1238
sg259
S'c:/marmalade/6.3/s3e/h/std/math.h'
p2984
sbsS'cmath'
p2985
g233
(g1204
g235
Ntp2986
Rp2987
(dp2988
g1208
g1216
sg1209
g1217
sg259
S'c:/marmalade/6.3/s3e/h/std/c++/cmath'
p2989
sbsS'uio.h'
p2990
g233
(g1204
g235
Ntp2991
Rp2992
(dp2993
g1208
g1216
sg1209
g1348
sg259
S'c:/marmalade/6.3/s3e/h/std/sys/uio.h'
p2994
sbsS'IwUncopyable.h'
p2995
g233
(g1204
g235
Ntp2996
Rp2997
(dp2998
g1208
g1090
sg1209
g1245
sg259
g1130
sbssS'tests'
p2999
(lp3000
sS'project_name'
p3001
g241
sS'root_file'
p3002
g95
sS'current_root'
p3003
S'c:/Users/Pietro/Documents/GitHub/Patriot-Missile-Defense'
p3004
sS'dependencies'
p3005
(lp3006
sS'include_paths'
p3007
(lp3008
S'c:/marmalade/6.3/modules/third_party/libjpeg/h'
p3009
aS'c:/marmalade/6.3/modules/third_party/zlib/h'
p3010
aS'c:/marmalade/6.3/modules/third_party/libpng/h'
p3011
aS'c:/marmalade/6.3/modules/iwutil/h'
p3012
aS'c:/marmalade/6.3/modules/iwgeom/h'
p3013
aS'c:/marmalade/6.3/modules/iwresmanager/h'
p3014
aS'c:/marmalade/6.3/modules/iwgl/h'
p3015
aS'c:/marmalade/6.3/modules/iwgx/h'
p3016
aS'c:/marmalade/6.3/modules/third_party/tiniconv/source'
p3017
aS'c:/marmalade/6.3/modules/iwgxfont/h'
p3018
aS'c:/marmalade/6.3/modules/iw2d/h'
p3019
aS'c:/marmalade/6.3/s3e/h'
p3020
aS'c:/marmalade/6.3/s3e/h/ext'
p3021
aS'c:/marmalade/6.3/s3e/h/std'
p3022
aS'c:/marmalade/6.3/s3e/h/std/c++'
p3023
aS'c:/marmalade/6.3/s3e/h/ext_legacy'
p3024
aS'c:/marmalade/6.3/s3e/h/legacy'
p3025
asS'weak_frameworks'
p3026
(lp3027
sS'extprojects'
p3028
(dp3029
sg484
(dp3030
g478
(lp3031
(g59
S'.'
p3032
I0
tp3033
asS'default'
p3034
(lp3035
(S'c:/users/pietro/documents/github/patriot-missile-defense/data/splashscreen.jpg'
p3036
S'splashscreen.jpg'
p3037
I0
tp3038
a(S'c:/users/pietro/documents/github/patriot-missile-defense/data-ram/data-gles2-dx11/resources.group.bin'
p3039
S'resources.group.bin'
p3040
I0
tp3041
asS'artbuild'
p3042
(lp3043
(S'c:/users/pietro/documents/github/patriot-missile-defense/data'
p3044
g3032
I0
tp3045
assS'macro_types'
p3046
(dp3047
g431
I1
sg432
I0
sg433
I0
sg434
I0
sg435
I0
sg436
I0
sg437
I0
sg438
I0
sg440
I0
sg441
I0
sg442
I0
sg443
I0
sg445
I0
sg447
I0
sg448
I0
sg449
I0
sg450
I0
sg451
I1
sg452
I0
sg453
I0
sg454
I0
sg455
I01
sg456
I1
sg457
I0
sg458
I0
sg459
I0
ssS'commands'
p3048
(lp3049
sg487
(g796
S'VC11XWP_WP8DEVTOOLSET'
p3050
S'X86ARM'
p3051
tp3052
sS'subprojectOptions'
p3053
(dp3054
g491
(lp3055
sg493
Nsg495
Nsg496
Nsg497
Nsg498
Nsg499
Nsg500
Nsg501
Nsg502
(lp3056
sg504
Nsg636
Nsg508
Nsg509
Nsg510
Nsg511
Nsg512
Nsg513
Nsg514
Nsg515
Nsg518
Nsg519
(lp3057
sg757
Nsg723
Nsg522
Nsg523
Nsg524
Nsg720
Nsg525
Nsg526
Nsg527
Nsg528
Nsg529
Nsg530
Nsg531
Nsg532
Nsg533
Nsg727
Nsg535
Nsg536
Nsg719
Nsg537
Nsg538
Nsg539
Nsg540
Nsg541
Nsg543
Nsg589
Nsg545
Nsg639
Nsg548
Nsg549
Nsg551
Nsg552
Nsg553
Nsg554
Nsg555
Nsg556
Nsg557
Nsg558
Nsg559
Nsg560
Nsg748
Nsg640
Nsg561
Nsg563
Nsg564
Nsg566
Nsg567
Nsg568
Nsg569
(lp3058
sg571
Nsg572
Nsg573
Nsg574
Nsg575
Nsg576
Nsg577
Nsg578
Nsg579
Nsg645
Nsg581
Nsg583
Nsg585
Nsg586
Nsg587
Nsg588
Nsg544
Nsg590
Nsg646
Nsg599
Nsg594
Nsg595
Nsg596
Nsg597
Nsg598
Nsg592
(lp3059
sg600
Nsg742
Nsg602
Nsg603
Nsg604
Nsg605
Nsg606
Nsg607
Nsg608
Nsg609
Nsg648
Nsg611
Nsg749
Nsg612
(lp3060
sg649
Nsg615
Nsg743
Nsg617
(lp3061
sg619
Nsg620
Nsg621
Nsg622
Nsg623
Nsg584
Nsg626
Nsg627
Nsg628
Nsg629
Nsg630
Nsg631
(lp3062
sg633
Nsg634
Nsg635
Nsg770
Nsg507
Nsg637
Nsg638
Nsg741
Nsg546
(lp3063
sg724
Nsg505
Nsg641
Nsg642
Nsg643
Nsg644
Nsg580
Nsg591
Nsg647
Nsg610
Nsg614
Nsg650
Nsg651
Nsg652
Nsg653
Nsg750
Nsg655
Nsg656
Nsg657
Nsg658
Nsg659
Nsg660
Nsg661
Nsg662
Nsg663
(lp3064
sg665
Nsg666
Nsg667
Nsg668
Nsg669
Nsg670
Nsg671
(lp3065
sg673
Nsg674
Nsg675
Nsg676
Nsg677
Nsg678
Nsg679
(lp3066
sg681
Nsg682
Nsg683
Nsg684
Nsg685
Nsg686
Nsg687
Nsg688
Nsg689
Nsg703
Nsg565
Nsg705
Nsg767
Nsg693
Nsg694
Nsg695
Nsg706
Nsg699
Nsg700
Nsg701
Nsg702
Nsg516
(lp3067
sg704
Nsg692
Nsg752
Nsg698
Nsg707
Nsg717
Nsg708
Nsg764
Nsg710
Nsg711
Nsg712
Nsg713
Nsg714
Nsg715
Nsg716
Nsg624
Nsg718
Nsg550
Nsg534
Nsg721
Nsg722
Nsg521
Nsg691
Nsg725
Nsg726
Nsg625
Nsg728
Nsg729
Nsg730
Nsg731
Nsg732
Nsg733
Nsg734
Nsg735
Nsg736
Nsg737
Nsg738
(lp3068
sg740
Nsg542
Nsg601
Nsg616
Nsg744
Nsg745
Nsg746
Nsg747
Nsg562
Nsg506
Nsg654
Nsg751
Nsg696
g697
sg753
Nsg754
Nsg755
Nsg756
Nsg582
Nsg758
Nsg759
Nsg760
Nsg761
Nsg762
Nsg763
Nsg709
Nsg765
Nsg766
Nsg690
Nsg768
Nsg769
Nsg494
Nsg771
NssS'build_libs'
p3069
(dp3070
sS'frameworks'
p3071
(lp3072
sS'environ'
p3073
(dp3074
sS'target_name_debug'
p3075
g241
sS'builders'
p3076
(dp3077
S'.S'
p3078
(dp3079
S'rvct'
p3080
(lp3081
S'.obj'
p3082
aS'echo ARM Assembling(RVCT) ${SOURCE}...'
p3083
aS'c:/marmalade/6.3/s3e\\rvct\\bin\\armasm -o ${TARGET} ${SOURCE}'
p3084
asS'gcc'
p3085
(lp3086
g3082
aS'echo ARM Assembling(GCC) ${SOURCE}...'
p3087
aS'c:/marmalade/6.3/s3e\\gcc\\bin\\arm-none-eabi-gcc -c -o ${TARGET} ${SOURCE}'
p3088
asS'ppu'
p3089
(lp3090
S'.a'
p3091
aS'echo PPU Assembling(SNC) ${SOURCE}...'
p3092
aS'c:/marmalade/6.3/s3e\\rvct\\bin\\armasm -o ${TARGET} ${SOURCE}'
p3093
assS'.s'
p3094
g3079
sS'.vp'
p3095
(lp3096
NaS'"C:/Marmalade/6.3/s3e/python/python.exe" "c:/marmalade/6.3/modules/iwgx/tools/compile_shaders.py" ${SOURCE}'
p3097
assg489
g0
sbtp3098
.